(lp0
S'age_0'
p1
aS'age_10'
p2
aS'age_15'
p3
aS'age_20'
p4
aS'age_25'
p5
aS'age_30'
p6
aS'age_35'
p7
aS'age_40'
p8
aS'age_45'
p9
aS'age_5'
p10
aS'age_50'
p11
aS'age_55'
p12
aS'age_60'
p13
aS'age_65'
p14
aS'age_70'
p15
aS'age_75'
p16
aS'cmd_01'
p17
aS'cmd_02'
p18
aS'cmd_03'
p19
aS'cmd_04'
p20
aS'cmd_05'
p21
aS'cmd_06'
p22
aS'cmd_07'
p23
aS'cmd_08'
p24
aS'cmd_09'
p25
aS'cmd_10'
p26
aS'cmd_11'
p27
aS'cmd_12'
p28
aS'cmd_13'
p29
aS'cmd_14'
p30
aS'cmd_15'
p31
aS'cmd_16'
p32
aS'cmd_17'
p33
aS'cmd_18'
p34
aS'cmd_19'
p35
aS'cmd_20'
p36
aS'cmd_21'
p37
aS'cmd_22'
p38
aS'cmd_23'
p39
aS'cmd_25'
p40
aS'cmd_26'
p41
aS'cmd_27'
p42
aS'complexity_ghm_1'
p43
aS'complexity_ghm_2'
p44
aS'complexity_ghm_3'
p45
aS'complexity_ghm_4'
p46
aS'complexity_ghm_A'
p47
aS'complexity_ghm_B'
p48
aS'complexity_ghm_C'
p49
aS'complexity_ghm_D'
p50
aS'complexity_ghm_J'
p51
aS'complexity_ghm_S'
p52
aS'complexity_ghm_T'
p53
aS'complexity_ghm_Z'
p54
aS'diag_A01'
p55
aS'diag_A02'
p56
aS'diag_A03'
p57
aS'diag_A04'
p58
aS'diag_A05'
p59
aS'diag_A06'
p60
aS'diag_A07'
p61
aS'diag_A08'
p62
aS'diag_A09'
p63
aS'diag_A15'
p64
aS'diag_A16'
p65
aS'diag_A17'
p66
aS'diag_A18'
p67
aS'diag_A19'
p68
aS'diag_A21'
p69
aS'diag_A26'
p70
aS'diag_A27'
p71
aS'diag_A28'
p72
aS'diag_A30'
p73
aS'diag_A31'
p74
aS'diag_A36'
p75
aS'diag_A37'
p76
aS'diag_A38'
p77
aS'diag_A39'
p78
aS'diag_A40'
p79
aS'diag_A41'
p80
aS'diag_A42'
p81
aS'diag_A43'
p82
aS'diag_A44'
p83
aS'diag_A46'
p84
aS'diag_A48'
p85
aS'diag_A51'
p86
aS'diag_A52'
p87
aS'diag_A53'
p88
aS'diag_A54'
p89
aS'diag_A55'
p90
aS'diag_A56'
p91
aS'diag_A58'
p92
aS'diag_A60'
p93
aS'diag_A63'
p94
aS'diag_A68'
p95
aS'diag_A69'
p96
aS'diag_A74'
p97
aS'diag_A78'
p98
aS'diag_A79'
p99
aS'diag_A81'
p100
aS'diag_A85'
p101
aS'diag_A86'
p102
aS'diag_A87'
p103
aS'diag_A88'
p104
aS'diag_A90'
p105
aS'diag_A91'
p106
aS'diag_A94'
p107
aS'diag_B00'
p108
aS'diag_B01'
p109
aS'diag_B02'
p110
aS'diag_B05'
p111
aS'diag_B07'
p112
aS'diag_B08'
p113
aS'diag_B09'
p114
aS'diag_B15'
p115
aS'diag_B16'
p116
aS'diag_B17'
p117
aS'diag_B18'
p118
aS'diag_B19'
p119
aS'diag_B20'
p120
aS'diag_B21'
p121
aS'diag_B22'
p122
aS'diag_B23'
p123
aS'diag_B24'
p124
aS'diag_B25'
p125
aS'diag_B26'
p126
aS'diag_B27'
p127
aS'diag_B30'
p128
aS'diag_B33'
p129
aS'diag_B34'
p130
aS'diag_B35'
p131
aS'diag_B36'
p132
aS'diag_B37'
p133
aS'diag_B43'
p134
aS'diag_B44'
p135
aS'diag_B46'
p136
aS'diag_B47'
p137
aS'diag_B48'
p138
aS'diag_B50'
p139
aS'diag_B51'
p140
aS'diag_B53'
p141
aS'diag_B54'
p142
aS'diag_B55'
p143
aS'diag_B57'
p144
aS'diag_B58'
p145
aS'diag_B59'
p146
aS'diag_B65'
p147
aS'diag_B67'
p148
aS'diag_B68'
p149
aS'diag_B69'
p150
aS'diag_B74'
p151
aS'diag_B76'
p152
aS'diag_B78'
p153
aS'diag_B80'
p154
aS'diag_B83'
p155
aS'diag_B85'
p156
aS'diag_B86'
p157
aS'diag_B87'
p158
aS'diag_B91'
p159
aS'diag_B99'
p160
aS'diag_C00'
p161
aS'diag_C01'
p162
aS'diag_C02'
p163
aS'diag_C03'
p164
aS'diag_C04'
p165
aS'diag_C05'
p166
aS'diag_C06'
p167
aS'diag_C07'
p168
aS'diag_C08'
p169
aS'diag_C09'
p170
aS'diag_C10'
p171
aS'diag_C11'
p172
aS'diag_C12'
p173
aS'diag_C13'
p174
aS'diag_C14'
p175
aS'diag_C15'
p176
aS'diag_C16'
p177
aS'diag_C17'
p178
aS'diag_C18'
p179
aS'diag_C19'
p180
aS'diag_C20'
p181
aS'diag_C21'
p182
aS'diag_C22'
p183
aS'diag_C23'
p184
aS'diag_C24'
p185
aS'diag_C25'
p186
aS'diag_C26'
p187
aS'diag_C30'
p188
aS'diag_C31'
p189
aS'diag_C32'
p190
aS'diag_C33'
p191
aS'diag_C34'
p192
aS'diag_C37'
p193
aS'diag_C38'
p194
aS'diag_C39'
p195
aS'diag_C40'
p196
aS'diag_C41'
p197
aS'diag_C43'
p198
aS'diag_C44'
p199
aS'diag_C45'
p200
aS'diag_C46'
p201
aS'diag_C47'
p202
aS'diag_C48'
p203
aS'diag_C49'
p204
aS'diag_C50'
p205
aS'diag_C51'
p206
aS'diag_C52'
p207
aS'diag_C53'
p208
aS'diag_C54'
p209
aS'diag_C55'
p210
aS'diag_C56'
p211
aS'diag_C57'
p212
aS'diag_C58'
p213
aS'diag_C60'
p214
aS'diag_C61'
p215
aS'diag_C62'
p216
aS'diag_C63'
p217
aS'diag_C64'
p218
aS'diag_C65'
p219
aS'diag_C66'
p220
aS'diag_C67'
p221
aS'diag_C68'
p222
aS'diag_C69'
p223
aS'diag_C70'
p224
aS'diag_C71'
p225
aS'diag_C72'
p226
aS'diag_C73'
p227
aS'diag_C74'
p228
aS'diag_C75'
p229
aS'diag_C76'
p230
aS'diag_C77'
p231
aS'diag_C78'
p232
aS'diag_C79'
p233
aS'diag_C80'
p234
aS'diag_C81'
p235
aS'diag_C82'
p236
aS'diag_C83'
p237
aS'diag_C84'
p238
aS'diag_C85'
p239
aS'diag_C86'
p240
aS'diag_C88'
p241
aS'diag_C90'
p242
aS'diag_C91'
p243
aS'diag_C92'
p244
aS'diag_C93'
p245
aS'diag_C94'
p246
aS'diag_C95'
p247
aS'diag_C96'
p248
aS'diag_D00'
p249
aS'diag_D01'
p250
aS'diag_D02'
p251
aS'diag_D03'
p252
aS'diag_D04'
p253
aS'diag_D05'
p254
aS'diag_D06'
p255
aS'diag_D07'
p256
aS'diag_D09'
p257
aS'diag_D10'
p258
aS'diag_D11'
p259
aS'diag_D12'
p260
aS'diag_D13'
p261
aS'diag_D14'
p262
aS'diag_D15'
p263
aS'diag_D16'
p264
aS'diag_D17'
p265
aS'diag_D18'
p266
aS'diag_D19'
p267
aS'diag_D20'
p268
aS'diag_D21'
p269
aS'diag_D22'
p270
aS'diag_D23'
p271
aS'diag_D24'
p272
aS'diag_D25'
p273
aS'diag_D26'
p274
aS'diag_D27'
p275
aS'diag_D28'
p276
aS'diag_D29'
p277
aS'diag_D30'
p278
aS'diag_D31'
p279
aS'diag_D32'
p280
aS'diag_D33'
p281
aS'diag_D34'
p282
aS'diag_D35'
p283
aS'diag_D36'
p284
aS'diag_D37'
p285
aS'diag_D38'
p286
aS'diag_D39'
p287
aS'diag_D40'
p288
aS'diag_D41'
p289
aS'diag_D42'
p290
aS'diag_D43'
p291
aS'diag_D44'
p292
aS'diag_D45'
p293
aS'diag_D46'
p294
aS'diag_D47'
p295
aS'diag_D48'
p296
aS'diag_D50'
p297
aS'diag_D51'
p298
aS'diag_D52'
p299
aS'diag_D53'
p300
aS'diag_D55'
p301
aS'diag_D56'
p302
aS'diag_D57'
p303
aS'diag_D58'
p304
aS'diag_D59'
p305
aS'diag_D60'
p306
aS'diag_D61'
p307
aS'diag_D62'
p308
aS'diag_D63'
p309
aS'diag_D64'
p310
aS'diag_D65'
p311
aS'diag_D66'
p312
aS'diag_D67'
p313
aS'diag_D68'
p314
aS'diag_D69'
p315
aS'diag_D70'
p316
aS'diag_D71'
p317
aS'diag_D72'
p318
aS'diag_D73'
p319
aS'diag_D74'
p320
aS'diag_D75'
p321
aS'diag_D76'
p322
aS'diag_D77'
p323
aS'diag_D80'
p324
aS'diag_D81'
p325
aS'diag_D82'
p326
aS'diag_D83'
p327
aS'diag_D84'
p328
aS'diag_D86'
p329
aS'diag_D89'
p330
aS'diag_E01'
p331
aS'diag_E03'
p332
aS'diag_E04'
p333
aS'diag_E05'
p334
aS'diag_E06'
p335
aS'diag_E07'
p336
aS'diag_E10'
p337
aS'diag_E11'
p338
aS'diag_E12'
p339
aS'diag_E13'
p340
aS'diag_E14'
p341
aS'diag_E15'
p342
aS'diag_E16'
p343
aS'diag_E20'
p344
aS'diag_E21'
p345
aS'diag_E22'
p346
aS'diag_E23'
p347
aS'diag_E24'
p348
aS'diag_E25'
p349
aS'diag_E26'
p350
aS'diag_E27'
p351
aS'diag_E28'
p352
aS'diag_E29'
p353
aS'diag_E30'
p354
aS'diag_E31'
p355
aS'diag_E34'
p356
aS'diag_E35'
p357
aS'diag_E41'
p358
aS'diag_E42'
p359
aS'diag_E43'
p360
aS'diag_E44'
p361
aS'diag_E45'
p362
aS'diag_E46'
p363
aS'diag_E51'
p364
aS'diag_E53'
p365
aS'diag_E54'
p366
aS'diag_E55'
p367
aS'diag_E56'
p368
aS'diag_E59'
p369
aS'diag_E61'
p370
aS'diag_E63'
p371
aS'diag_E65'
p372
aS'diag_E66'
p373
aS'diag_E70'
p374
aS'diag_E71'
p375
aS'diag_E72'
p376
aS'diag_E73'
p377
aS'diag_E74'
p378
aS'diag_E75'
p379
aS'diag_E76'
p380
aS'diag_E77'
p381
aS'diag_E78'
p382
aS'diag_E79'
p383
aS'diag_E80'
p384
aS'diag_E83'
p385
aS'diag_E84'
p386
aS'diag_E85'
p387
aS'diag_E86'
p388
aS'diag_E87'
p389
aS'diag_E88'
p390
aS'diag_E89'
p391
aS'diag_E90'
p392
aS'diag_F00'
p393
aS'diag_F01'
p394
aS'diag_F02'
p395
aS'diag_F03'
p396
aS'diag_F04'
p397
aS'diag_F05'
p398
aS'diag_F06'
p399
aS'diag_F07'
p400
aS'diag_F09'
p401
aS'diag_F10'
p402
aS'diag_F11'
p403
aS'diag_F12'
p404
aS'diag_F13'
p405
aS'diag_F14'
p406
aS'diag_F15'
p407
aS'diag_F16'
p408
aS'diag_F17'
p409
aS'diag_F18'
p410
aS'diag_F19'
p411
aS'diag_F20'
p412
aS'diag_F21'
p413
aS'diag_F22'
p414
aS'diag_F23'
p415
aS'diag_F24'
p416
aS'diag_F25'
p417
aS'diag_F28'
p418
aS'diag_F29'
p419
aS'diag_F30'
p420
aS'diag_F31'
p421
aS'diag_F32'
p422
aS'diag_F33'
p423
aS'diag_F34'
p424
aS'diag_F38'
p425
aS'diag_F39'
p426
aS'diag_F40'
p427
aS'diag_F41'
p428
aS'diag_F42'
p429
aS'diag_F43'
p430
aS'diag_F44'
p431
aS'diag_F45'
p432
aS'diag_F48'
p433
aS'diag_F50'
p434
aS'diag_F51'
p435
aS'diag_F52'
p436
aS'diag_F53'
p437
aS'diag_F54'
p438
aS'diag_F55'
p439
aS'diag_F59'
p440
aS'diag_F60'
p441
aS'diag_F61'
p442
aS'diag_F62'
p443
aS'diag_F63'
p444
aS'diag_F64'
p445
aS'diag_F65'
p446
aS'diag_F68'
p447
aS'diag_F69'
p448
aS'diag_F70'
p449
aS'diag_F71'
p450
aS'diag_F72'
p451
aS'diag_F73'
p452
aS'diag_F78'
p453
aS'diag_F79'
p454
aS'diag_F80'
p455
aS'diag_F81'
p456
aS'diag_F82'
p457
aS'diag_F83'
p458
aS'diag_F84'
p459
aS'diag_F88'
p460
aS'diag_F89'
p461
aS'diag_F90'
p462
aS'diag_F91'
p463
aS'diag_F92'
p464
aS'diag_F93'
p465
aS'diag_F94'
p466
aS'diag_F95'
p467
aS'diag_F98'
p468
aS'diag_G00'
p469
aS'diag_G01'
p470
aS'diag_G02'
p471
aS'diag_G03'
p472
aS'diag_G04'
p473
aS'diag_G05'
p474
aS'diag_G06'
p475
aS'diag_G07'
p476
aS'diag_G08'
p477
aS'diag_G10'
p478
aS'diag_G11'
p479
aS'diag_G12'
p480
aS'diag_G13'
p481
aS'diag_G14'
p482
aS'diag_G20'
p483
aS'diag_G21'
p484
aS'diag_G22'
p485
aS'diag_G23'
p486
aS'diag_G24'
p487
aS'diag_G25'
p488
aS'diag_G26'
p489
aS'diag_G30'
p490
aS'diag_G31'
p491
aS'diag_G32'
p492
aS'diag_G35'
p493
aS'diag_G36'
p494
aS'diag_G37'
p495
aS'diag_G40'
p496
aS'diag_G41'
p497
aS'diag_G43'
p498
aS'diag_G44'
p499
aS'diag_G45'
p500
aS'diag_G46'
p501
aS'diag_G47'
p502
aS'diag_G50'
p503
aS'diag_G51'
p504
aS'diag_G52'
p505
aS'diag_G53'
p506
aS'diag_G54'
p507
aS'diag_G55'
p508
aS'diag_G56'
p509
aS'diag_G57'
p510
aS'diag_G58'
p511
aS'diag_G59'
p512
aS'diag_G60'
p513
aS'diag_G61'
p514
aS'diag_G62'
p515
aS'diag_G63'
p516
aS'diag_G64'
p517
aS'diag_G70'
p518
aS'diag_G71'
p519
aS'diag_G72'
p520
aS'diag_G73'
p521
aS'diag_G80'
p522
aS'diag_G81'
p523
aS'diag_G82'
p524
aS'diag_G83'
p525
aS'diag_G90'
p526
aS'diag_G91'
p527
aS'diag_G92'
p528
aS'diag_G93'
p529
aS'diag_G94'
p530
aS'diag_G95'
p531
aS'diag_G96'
p532
aS'diag_G97'
p533
aS'diag_G98'
p534
aS'diag_G99'
p535
aS'diag_H00'
p536
aS'diag_H01'
p537
aS'diag_H02'
p538
aS'diag_H04'
p539
aS'diag_H05'
p540
aS'diag_H06'
p541
aS'diag_H10'
p542
aS'diag_H11'
p543
aS'diag_H13'
p544
aS'diag_H15'
p545
aS'diag_H16'
p546
aS'diag_H17'
p547
aS'diag_H18'
p548
aS'diag_H19'
p549
aS'diag_H20'
p550
aS'diag_H21'
p551
aS'diag_H22'
p552
aS'diag_H25'
p553
aS'diag_H26'
p554
aS'diag_H27'
p555
aS'diag_H28'
p556
aS'diag_H30'
p557
aS'diag_H31'
p558
aS'diag_H32'
p559
aS'diag_H33'
p560
aS'diag_H34'
p561
aS'diag_H35'
p562
aS'diag_H36'
p563
aS'diag_H40'
p564
aS'diag_H42'
p565
aS'diag_H43'
p566
aS'diag_H44'
p567
aS'diag_H45'
p568
aS'diag_H46'
p569
aS'diag_H47'
p570
aS'diag_H48'
p571
aS'diag_H49'
p572
aS'diag_H50'
p573
aS'diag_H51'
p574
aS'diag_H52'
p575
aS'diag_H53'
p576
aS'diag_H54'
p577
aS'diag_H55'
p578
aS'diag_H57'
p579
aS'diag_H58'
p580
aS'diag_H59'
p581
aS'diag_H60'
p582
aS'diag_H61'
p583
aS'diag_H65'
p584
aS'diag_H66'
p585
aS'diag_H68'
p586
aS'diag_H69'
p587
aS'diag_H70'
p588
aS'diag_H71'
p589
aS'diag_H72'
p590
aS'diag_H73'
p591
aS'diag_H74'
p592
aS'diag_H75'
p593
aS'diag_H80'
p594
aS'diag_H81'
p595
aS'diag_H82'
p596
aS'diag_H83'
p597
aS'diag_H90'
p598
aS'diag_H91'
p599
aS'diag_H92'
p600
aS'diag_H93'
p601
aS'diag_H94'
p602
aS'diag_H95'
p603
aS'diag_I00'
p604
aS'diag_I01'
p605
aS'diag_I05'
p606
aS'diag_I06'
p607
aS'diag_I07'
p608
aS'diag_I08'
p609
aS'diag_I09'
p610
aS'diag_I10'
p611
aS'diag_I11'
p612
aS'diag_I12'
p613
aS'diag_I13'
p614
aS'diag_I15'
p615
aS'diag_I20'
p616
aS'diag_I21'
p617
aS'diag_I22'
p618
aS'diag_I23'
p619
aS'diag_I24'
p620
aS'diag_I25'
p621
aS'diag_I26'
p622
aS'diag_I27'
p623
aS'diag_I28'
p624
aS'diag_I30'
p625
aS'diag_I31'
p626
aS'diag_I32'
p627
aS'diag_I33'
p628
aS'diag_I34'
p629
aS'diag_I35'
p630
aS'diag_I36'
p631
aS'diag_I37'
p632
aS'diag_I38'
p633
aS'diag_I39'
p634
aS'diag_I40'
p635
aS'diag_I41'
p636
aS'diag_I42'
p637
aS'diag_I43'
p638
aS'diag_I44'
p639
aS'diag_I45'
p640
aS'diag_I46'
p641
aS'diag_I47'
p642
aS'diag_I48'
p643
aS'diag_I49'
p644
aS'diag_I50'
p645
aS'diag_I51'
p646
aS'diag_I52'
p647
aS'diag_I60'
p648
aS'diag_I61'
p649
aS'diag_I62'
p650
aS'diag_I63'
p651
aS'diag_I64'
p652
aS'diag_I65'
p653
aS'diag_I66'
p654
aS'diag_I67'
p655
aS'diag_I68'
p656
aS'diag_I69'
p657
aS'diag_I70'
p658
aS'diag_I71'
p659
aS'diag_I72'
p660
aS'diag_I73'
p661
aS'diag_I74'
p662
aS'diag_I77'
p663
aS'diag_I78'
p664
aS'diag_I79'
p665
aS'diag_I80'
p666
aS'diag_I81'
p667
aS'diag_I82'
p668
aS'diag_I83'
p669
aS'diag_I84'
p670
aS'diag_I85'
p671
aS'diag_I86'
p672
aS'diag_I87'
p673
aS'diag_I88'
p674
aS'diag_I89'
p675
aS'diag_I95'
p676
aS'diag_I97'
p677
aS'diag_I98'
p678
aS'diag_J00'
p679
aS'diag_J01'
p680
aS'diag_J02'
p681
aS'diag_J03'
p682
aS'diag_J04'
p683
aS'diag_J05'
p684
aS'diag_J06'
p685
aS'diag_J09'
p686
aS'diag_J10'
p687
aS'diag_J11'
p688
aS'diag_J12'
p689
aS'diag_J13'
p690
aS'diag_J14'
p691
aS'diag_J15'
p692
aS'diag_J16'
p693
aS'diag_J17'
p694
aS'diag_J18'
p695
aS'diag_J20'
p696
aS'diag_J21'
p697
aS'diag_J30'
p698
aS'diag_J31'
p699
aS'diag_J32'
p700
aS'diag_J33'
p701
aS'diag_J34'
p702
aS'diag_J35'
p703
aS'diag_J36'
p704
aS'diag_J37'
p705
aS'diag_J38'
p706
aS'diag_J39'
p707
aS'diag_J40'
p708
aS'diag_J41'
p709
aS'diag_J42'
p710
aS'diag_J43'
p711
aS'diag_J44'
p712
aS'diag_J45'
p713
aS'diag_J46'
p714
aS'diag_J47'
p715
aS'diag_J60'
p716
aS'diag_J61'
p717
aS'diag_J62'
p718
aS'diag_J63'
p719
aS'diag_J64'
p720
aS'diag_J66'
p721
aS'diag_J67'
p722
aS'diag_J68'
p723
aS'diag_J69'
p724
aS'diag_J70'
p725
aS'diag_J80'
p726
aS'diag_J81'
p727
aS'diag_J82'
p728
aS'diag_J84'
p729
aS'diag_J85'
p730
aS'diag_J86'
p731
aS'diag_J90'
p732
aS'diag_J91'
p733
aS'diag_J92'
p734
aS'diag_J93'
p735
aS'diag_J94'
p736
aS'diag_J95'
p737
aS'diag_J96'
p738
aS'diag_J98'
p739
aS'diag_J99'
p740
aS'diag_K00'
p741
aS'diag_K01'
p742
aS'diag_K02'
p743
aS'diag_K03'
p744
aS'diag_K04'
p745
aS'diag_K05'
p746
aS'diag_K06'
p747
aS'diag_K07'
p748
aS'diag_K08'
p749
aS'diag_K09'
p750
aS'diag_K10'
p751
aS'diag_K11'
p752
aS'diag_K12'
p753
aS'diag_K13'
p754
aS'diag_K14'
p755
aS'diag_K20'
p756
aS'diag_K21'
p757
aS'diag_K22'
p758
aS'diag_K23'
p759
aS'diag_K25'
p760
aS'diag_K26'
p761
aS'diag_K27'
p762
aS'diag_K28'
p763
aS'diag_K29'
p764
aS'diag_K30'
p765
aS'diag_K31'
p766
aS'diag_K35'
p767
aS'diag_K36'
p768
aS'diag_K37'
p769
aS'diag_K38'
p770
aS'diag_K40'
p771
aS'diag_K41'
p772
aS'diag_K42'
p773
aS'diag_K43'
p774
aS'diag_K44'
p775
aS'diag_K45'
p776
aS'diag_K46'
p777
aS'diag_K50'
p778
aS'diag_K51'
p779
aS'diag_K52'
p780
aS'diag_K55'
p781
aS'diag_K56'
p782
aS'diag_K57'
p783
aS'diag_K58'
p784
aS'diag_K59'
p785
aS'diag_K60'
p786
aS'diag_K61'
p787
aS'diag_K62'
p788
aS'diag_K63'
p789
aS'diag_K65'
p790
aS'diag_K66'
p791
aS'diag_K67'
p792
aS'diag_K70'
p793
aS'diag_K71'
p794
aS'diag_K72'
p795
aS'diag_K73'
p796
aS'diag_K74'
p797
aS'diag_K75'
p798
aS'diag_K76'
p799
aS'diag_K77'
p800
aS'diag_K80'
p801
aS'diag_K81'
p802
aS'diag_K82'
p803
aS'diag_K83'
p804
aS'diag_K85'
p805
aS'diag_K86'
p806
aS'diag_K87'
p807
aS'diag_K90'
p808
aS'diag_K91'
p809
aS'diag_K92'
p810
aS'diag_K93'
p811
aS'diag_L01'
p812
aS'diag_L02'
p813
aS'diag_L03'
p814
aS'diag_L04'
p815
aS'diag_L05'
p816
aS'diag_L08'
p817
aS'diag_L10'
p818
aS'diag_L11'
p819
aS'diag_L12'
p820
aS'diag_L13'
p821
aS'diag_L14'
p822
aS'diag_L20'
p823
aS'diag_L21'
p824
aS'diag_L23'
p825
aS'diag_L24'
p826
aS'diag_L25'
p827
aS'diag_L27'
p828
aS'diag_L28'
p829
aS'diag_L29'
p830
aS'diag_L30'
p831
aS'diag_L40'
p832
aS'diag_L41'
p833
aS'diag_L42'
p834
aS'diag_L43'
p835
aS'diag_L44'
p836
aS'diag_L50'
p837
aS'diag_L51'
p838
aS'diag_L52'
p839
aS'diag_L53'
p840
aS'diag_L54'
p841
aS'diag_L55'
p842
aS'diag_L56'
p843
aS'diag_L57'
p844
aS'diag_L58'
p845
aS'diag_L59'
p846
aS'diag_L60'
p847
aS'diag_L63'
p848
aS'diag_L64'
p849
aS'diag_L65'
p850
aS'diag_L66'
p851
aS'diag_L67'
p852
aS'diag_L68'
p853
aS'diag_L70'
p854
aS'diag_L71'
p855
aS'diag_L72'
p856
aS'diag_L73'
p857
aS'diag_L75'
p858
aS'diag_L81'
p859
aS'diag_L82'
p860
aS'diag_L84'
p861
aS'diag_L85'
p862
aS'diag_L88'
p863
aS'diag_L89'
p864
aS'diag_L90'
p865
aS'diag_L91'
p866
aS'diag_L92'
p867
aS'diag_L93'
p868
aS'diag_L94'
p869
aS'diag_L95'
p870
aS'diag_L97'
p871
aS'diag_L98'
p872
aS'diag_L99'
p873
aS'diag_M00'
p874
aS'diag_M01'
p875
aS'diag_M02'
p876
aS'diag_M03'
p877
aS'diag_M05'
p878
aS'diag_M06'
p879
aS'diag_M07'
p880
aS'diag_M08'
p881
aS'diag_M09'
p882
aS'diag_M10'
p883
aS'diag_M11'
p884
aS'diag_M12'
p885
aS'diag_M13'
p886
aS'diag_M14'
p887
aS'diag_M15'
p888
aS'diag_M16'
p889
aS'diag_M17'
p890
aS'diag_M18'
p891
aS'diag_M19'
p892
aS'diag_M20'
p893
aS'diag_M21'
p894
aS'diag_M22'
p895
aS'diag_M23'
p896
aS'diag_M24'
p897
aS'diag_M25'
p898
aS'diag_M30'
p899
aS'diag_M31'
p900
aS'diag_M32'
p901
aS'diag_M33'
p902
aS'diag_M34'
p903
aS'diag_M35'
p904
aS'diag_M36'
p905
aS'diag_M40'
p906
aS'diag_M41'
p907
aS'diag_M43'
p908
aS'diag_M45'
p909
aS'diag_M46'
p910
aS'diag_M47'
p911
aS'diag_M48'
p912
aS'diag_M49'
p913
aS'diag_M50'
p914
aS'diag_M51'
p915
aS'diag_M53'
p916
aS'diag_M54'
p917
aS'diag_M60'
p918
aS'diag_M61'
p919
aS'diag_M62'
p920
aS'diag_M63'
p921
aS'diag_M65'
p922
aS'diag_M66'
p923
aS'diag_M67'
p924
aS'diag_M68'
p925
aS'diag_M70'
p926
aS'diag_M71'
p927
aS'diag_M72'
p928
aS'diag_M73'
p929
aS'diag_M75'
p930
aS'diag_M76'
p931
aS'diag_M77'
p932
aS'diag_M79'
p933
aS'diag_M80'
p934
aS'diag_M81'
p935
aS'diag_M82'
p936
aS'diag_M83'
p937
aS'diag_M84'
p938
aS'diag_M85'
p939
aS'diag_M86'
p940
aS'diag_M87'
p941
aS'diag_M88'
p942
aS'diag_M89'
p943
aS'diag_M90'
p944
aS'diag_M91'
p945
aS'diag_M92'
p946
aS'diag_M93'
p947
aS'diag_M94'
p948
aS'diag_M95'
p949
aS'diag_M96'
p950
aS'diag_M99'
p951
aS'diag_N00'
p952
aS'diag_N01'
p953
aS'diag_N02'
p954
aS'diag_N03'
p955
aS'diag_N04'
p956
aS'diag_N05'
p957
aS'diag_N06'
p958
aS'diag_N07'
p959
aS'diag_N08'
p960
aS'diag_N10'
p961
aS'diag_N11'
p962
aS'diag_N12'
p963
aS'diag_N13'
p964
aS'diag_N14'
p965
aS'diag_N15'
p966
aS'diag_N16'
p967
aS'diag_N17'
p968
aS'diag_N18'
p969
aS'diag_N19'
p970
aS'diag_N20'
p971
aS'diag_N21'
p972
aS'diag_N22'
p973
aS'diag_N23'
p974
aS'diag_N25'
p975
aS'diag_N26'
p976
aS'diag_N27'
p977
aS'diag_N28'
p978
aS'diag_N29'
p979
aS'diag_N30'
p980
aS'diag_N31'
p981
aS'diag_N32'
p982
aS'diag_N33'
p983
aS'diag_N34'
p984
aS'diag_N35'
p985
aS'diag_N36'
p986
aS'diag_N37'
p987
aS'diag_N39'
p988
aS'diag_N40'
p989
aS'diag_N41'
p990
aS'diag_N42'
p991
aS'diag_N43'
p992
aS'diag_N44'
p993
aS'diag_N45'
p994
aS'diag_N46'
p995
aS'diag_N47'
p996
aS'diag_N48'
p997
aS'diag_N49'
p998
aS'diag_N50'
p999
aS'diag_N51'
p1000
aS'diag_N60'
p1001
aS'diag_N61'
p1002
aS'diag_N62'
p1003
aS'diag_N63'
p1004
aS'diag_N64'
p1005
aS'diag_N70'
p1006
aS'diag_N71'
p1007
aS'diag_N72'
p1008
aS'diag_N73'
p1009
aS'diag_N74'
p1010
aS'diag_N75'
p1011
aS'diag_N76'
p1012
aS'diag_N77'
p1013
aS'diag_N80'
p1014
aS'diag_N81'
p1015
aS'diag_N82'
p1016
aS'diag_N83'
p1017
aS'diag_N84'
p1018
aS'diag_N85'
p1019
aS'diag_N86'
p1020
aS'diag_N87'
p1021
aS'diag_N88'
p1022
aS'diag_N89'
p1023
aS'diag_N90'
p1024
aS'diag_N91'
p1025
aS'diag_N92'
p1026
aS'diag_N93'
p1027
aS'diag_N94'
p1028
aS'diag_N95'
p1029
aS'diag_N96'
p1030
aS'diag_N97'
p1031
aS'diag_N98'
p1032
aS'diag_N99'
p1033
aS'diag_O00'
p1034
aS'diag_O01'
p1035
aS'diag_O02'
p1036
aS'diag_O03'
p1037
aS'diag_O04'
p1038
aS'diag_O05'
p1039
aS'diag_O06'
p1040
aS'diag_O07'
p1041
aS'diag_O08'
p1042
aS'diag_O10'
p1043
aS'diag_O11'
p1044
aS'diag_O12'
p1045
aS'diag_O13'
p1046
aS'diag_O14'
p1047
aS'diag_O15'
p1048
aS'diag_O16'
p1049
aS'diag_O20'
p1050
aS'diag_O21'
p1051
aS'diag_O22'
p1052
aS'diag_O23'
p1053
aS'diag_O24'
p1054
aS'diag_O26'
p1055
aS'diag_O28'
p1056
aS'diag_O30'
p1057
aS'diag_O31'
p1058
aS'diag_O32'
p1059
aS'diag_O33'
p1060
aS'diag_O34'
p1061
aS'diag_O35'
p1062
aS'diag_O36'
p1063
aS'diag_O40'
p1064
aS'diag_O41'
p1065
aS'diag_O42'
p1066
aS'diag_O43'
p1067
aS'diag_O44'
p1068
aS'diag_O45'
p1069
aS'diag_O46'
p1070
aS'diag_O47'
p1071
aS'diag_O48'
p1072
aS'diag_O60'
p1073
aS'diag_O61'
p1074
aS'diag_O62'
p1075
aS'diag_O63'
p1076
aS'diag_O64'
p1077
aS'diag_O65'
p1078
aS'diag_O66'
p1079
aS'diag_O67'
p1080
aS'diag_O68'
p1081
aS'diag_O69'
p1082
aS'diag_O70'
p1083
aS'diag_O71'
p1084
aS'diag_O72'
p1085
aS'diag_O73'
p1086
aS'diag_O74'
p1087
aS'diag_O75'
p1088
aS'diag_O80'
p1089
aS'diag_O85'
p1090
aS'diag_O86'
p1091
aS'diag_O87'
p1092
aS'diag_O88'
p1093
aS'diag_O89'
p1094
aS'diag_O90'
p1095
aS'diag_O91'
p1096
aS'diag_O92'
p1097
aS'diag_O98'
p1098
aS'diag_O99'
p1099
aS'diag_P00'
p1100
aS'diag_P01'
p1101
aS'diag_P02'
p1102
aS'diag_P03'
p1103
aS'diag_P04'
p1104
aS'diag_P05'
p1105
aS'diag_P07'
p1106
aS'diag_P08'
p1107
aS'diag_P10'
p1108
aS'diag_P12'
p1109
aS'diag_P13'
p1110
aS'diag_P14'
p1111
aS'diag_P20'
p1112
aS'diag_P21'
p1113
aS'diag_P22'
p1114
aS'diag_P23'
p1115
aS'diag_P24'
p1116
aS'diag_P25'
p1117
aS'diag_P27'
p1118
aS'diag_P28'
p1119
aS'diag_P29'
p1120
aS'diag_P35'
p1121
aS'diag_P36'
p1122
aS'diag_P37'
p1123
aS'diag_P38'
p1124
aS'diag_P39'
p1125
aS'diag_P50'
p1126
aS'diag_P51'
p1127
aS'diag_P52'
p1128
aS'diag_P54'
p1129
aS'diag_P55'
p1130
aS'diag_P57'
p1131
aS'diag_P58'
p1132
aS'diag_P59'
p1133
aS'diag_P61'
p1134
aS'diag_P70'
p1135
aS'diag_P71'
p1136
aS'diag_P72'
p1137
aS'diag_P74'
p1138
aS'diag_P75'
p1139
aS'diag_P76'
p1140
aS'diag_P77'
p1141
aS'diag_P78'
p1142
aS'diag_P80'
p1143
aS'diag_P81'
p1144
aS'diag_P83'
p1145
aS'diag_P90'
p1146
aS'diag_P91'
p1147
aS'diag_P92'
p1148
aS'diag_P94'
p1149
aS'diag_P96'
p1150
aS'diag_Q01'
p1151
aS'diag_Q02'
p1152
aS'diag_Q03'
p1153
aS'diag_Q04'
p1154
aS'diag_Q05'
p1155
aS'diag_Q06'
p1156
aS'diag_Q07'
p1157
aS'diag_Q10'
p1158
aS'diag_Q11'
p1159
aS'diag_Q12'
p1160
aS'diag_Q13'
p1161
aS'diag_Q14'
p1162
aS'diag_Q15'
p1163
aS'diag_Q16'
p1164
aS'diag_Q17'
p1165
aS'diag_Q18'
p1166
aS'diag_Q20'
p1167
aS'diag_Q21'
p1168
aS'diag_Q22'
p1169
aS'diag_Q23'
p1170
aS'diag_Q24'
p1171
aS'diag_Q25'
p1172
aS'diag_Q26'
p1173
aS'diag_Q27'
p1174
aS'diag_Q28'
p1175
aS'diag_Q30'
p1176
aS'diag_Q31'
p1177
aS'diag_Q32'
p1178
aS'diag_Q33'
p1179
aS'diag_Q35'
p1180
aS'diag_Q36'
p1181
aS'diag_Q37'
p1182
aS'diag_Q38'
p1183
aS'diag_Q39'
p1184
aS'diag_Q40'
p1185
aS'diag_Q41'
p1186
aS'diag_Q42'
p1187
aS'diag_Q43'
p1188
aS'diag_Q44'
p1189
aS'diag_Q45'
p1190
aS'diag_Q50'
p1191
aS'diag_Q51'
p1192
aS'diag_Q52'
p1193
aS'diag_Q53'
p1194
aS'diag_Q54'
p1195
aS'diag_Q55'
p1196
aS'diag_Q56'
p1197
aS'diag_Q60'
p1198
aS'diag_Q61'
p1199
aS'diag_Q62'
p1200
aS'diag_Q63'
p1201
aS'diag_Q64'
p1202
aS'diag_Q65'
p1203
aS'diag_Q66'
p1204
aS'diag_Q67'
p1205
aS'diag_Q68'
p1206
aS'diag_Q69'
p1207
aS'diag_Q70'
p1208
aS'diag_Q71'
p1209
aS'diag_Q72'
p1210
aS'diag_Q73'
p1211
aS'diag_Q74'
p1212
aS'diag_Q75'
p1213
aS'diag_Q76'
p1214
aS'diag_Q77'
p1215
aS'diag_Q78'
p1216
aS'diag_Q79'
p1217
aS'diag_Q80'
p1218
aS'diag_Q81'
p1219
aS'diag_Q82'
p1220
aS'diag_Q83'
p1221
aS'diag_Q84'
p1222
aS'diag_Q85'
p1223
aS'diag_Q87'
p1224
aS'diag_Q89'
p1225
aS'diag_Q90'
p1226
aS'diag_Q92'
p1227
aS'diag_Q93'
p1228
aS'diag_Q96'
p1229
aS'diag_Q98'
p1230
aS'diag_Q99'
p1231
aS'diag_R00'
p1232
aS'diag_R01'
p1233
aS'diag_R02'
p1234
aS'diag_R03'
p1235
aS'diag_R04'
p1236
aS'diag_R05'
p1237
aS'diag_R06'
p1238
aS'diag_R07'
p1239
aS'diag_R09'
p1240
aS'diag_R10'
p1241
aS'diag_R11'
p1242
aS'diag_R12'
p1243
aS'diag_R13'
p1244
aS'diag_R14'
p1245
aS'diag_R15'
p1246
aS'diag_R16'
p1247
aS'diag_R17'
p1248
aS'diag_R18'
p1249
aS'diag_R19'
p1250
aS'diag_R20'
p1251
aS'diag_R21'
p1252
aS'diag_R22'
p1253
aS'diag_R23'
p1254
aS'diag_R25'
p1255
aS'diag_R26'
p1256
aS'diag_R27'
p1257
aS'diag_R29'
p1258
aS'diag_R30'
p1259
aS'diag_R31'
p1260
aS'diag_R32'
p1261
aS'diag_R33'
p1262
aS'diag_R34'
p1263
aS'diag_R35'
p1264
aS'diag_R39'
p1265
aS'diag_R40'
p1266
aS'diag_R41'
p1267
aS'diag_R42'
p1268
aS'diag_R44'
p1269
aS'diag_R45'
p1270
aS'diag_R46'
p1271
aS'diag_R47'
p1272
aS'diag_R48'
p1273
aS'diag_R49'
p1274
aS'diag_R50'
p1275
aS'diag_R51'
p1276
aS'diag_R52'
p1277
aS'diag_R53'
p1278
aS'diag_R54'
p1279
aS'diag_R55'
p1280
aS'diag_R56'
p1281
aS'diag_R57'
p1282
aS'diag_R58'
p1283
aS'diag_R59'
p1284
aS'diag_R60'
p1285
aS'diag_R61'
p1286
aS'diag_R62'
p1287
aS'diag_R63'
p1288
aS'diag_R64'
p1289
aS'diag_R65'
p1290
aS'diag_R68'
p1291
aS'diag_R70'
p1292
aS'diag_R71'
p1293
aS'diag_R72'
p1294
aS'diag_R73'
p1295
aS'diag_R74'
p1296
aS'diag_R75'
p1297
aS'diag_R76'
p1298
aS'diag_R77'
p1299
aS'diag_R78'
p1300
aS'diag_R79'
p1301
aS'diag_R80'
p1302
aS'diag_R82'
p1303
aS'diag_R84'
p1304
aS'diag_R85'
p1305
aS'diag_R86'
p1306
aS'diag_R87'
p1307
aS'diag_R89'
p1308
aS'diag_R90'
p1309
aS'diag_R91'
p1310
aS'diag_R92'
p1311
aS'diag_R93'
p1312
aS'diag_R94'
p1313
aS'diag_R96'
p1314
aS'diag_S00'
p1315
aS'diag_S01'
p1316
aS'diag_S02'
p1317
aS'diag_S03'
p1318
aS'diag_S04'
p1319
aS'diag_S05'
p1320
aS'diag_S06'
p1321
aS'diag_S07'
p1322
aS'diag_S08'
p1323
aS'diag_S09'
p1324
aS'diag_S10'
p1325
aS'diag_S11'
p1326
aS'diag_S12'
p1327
aS'diag_S13'
p1328
aS'diag_S14'
p1329
aS'diag_S15'
p1330
aS'diag_S16'
p1331
aS'diag_S19'
p1332
aS'diag_S20'
p1333
aS'diag_S21'
p1334
aS'diag_S22'
p1335
aS'diag_S23'
p1336
aS'diag_S24'
p1337
aS'diag_S25'
p1338
aS'diag_S26'
p1339
aS'diag_S27'
p1340
aS'diag_S29'
p1341
aS'diag_S30'
p1342
aS'diag_S31'
p1343
aS'diag_S32'
p1344
aS'diag_S33'
p1345
aS'diag_S34'
p1346
aS'diag_S35'
p1347
aS'diag_S36'
p1348
aS'diag_S37'
p1349
aS'diag_S38'
p1350
aS'diag_S39'
p1351
aS'diag_S40'
p1352
aS'diag_S41'
p1353
aS'diag_S42'
p1354
aS'diag_S43'
p1355
aS'diag_S44'
p1356
aS'diag_S45'
p1357
aS'diag_S46'
p1358
aS'diag_S48'
p1359
aS'diag_S49'
p1360
aS'diag_S50'
p1361
aS'diag_S51'
p1362
aS'diag_S52'
p1363
aS'diag_S53'
p1364
aS'diag_S54'
p1365
aS'diag_S55'
p1366
aS'diag_S56'
p1367
aS'diag_S58'
p1368
aS'diag_S59'
p1369
aS'diag_S60'
p1370
aS'diag_S61'
p1371
aS'diag_S62'
p1372
aS'diag_S63'
p1373
aS'diag_S64'
p1374
aS'diag_S65'
p1375
aS'diag_S66'
p1376
aS'diag_S67'
p1377
aS'diag_S68'
p1378
aS'diag_S69'
p1379
aS'diag_S70'
p1380
aS'diag_S71'
p1381
aS'diag_S72'
p1382
aS'diag_S73'
p1383
aS'diag_S74'
p1384
aS'diag_S75'
p1385
aS'diag_S76'
p1386
aS'diag_S78'
p1387
aS'diag_S79'
p1388
aS'diag_S80'
p1389
aS'diag_S81'
p1390
aS'diag_S82'
p1391
aS'diag_S83'
p1392
aS'diag_S84'
p1393
aS'diag_S85'
p1394
aS'diag_S86'
p1395
aS'diag_S87'
p1396
aS'diag_S89'
p1397
aS'diag_S90'
p1398
aS'diag_S91'
p1399
aS'diag_S92'
p1400
aS'diag_S93'
p1401
aS'diag_S94'
p1402
aS'diag_S95'
p1403
aS'diag_S96'
p1404
aS'diag_S97'
p1405
aS'diag_S98'
p1406
aS'diag_S99'
p1407
aS'diag_T06'
p1408
aS'diag_T11'
p1409
aS'diag_T13'
p1410
aS'diag_T15'
p1411
aS'diag_T16'
p1412
aS'diag_T17'
p1413
aS'diag_T18'
p1414
aS'diag_T19'
p1415
aS'diag_T20'
p1416
aS'diag_T21'
p1417
aS'diag_T22'
p1418
aS'diag_T23'
p1419
aS'diag_T24'
p1420
aS'diag_T25'
p1421
aS'diag_T26'
p1422
aS'diag_T28'
p1423
aS'diag_T29'
p1424
aS'diag_T30'
p1425
aS'diag_T31'
p1426
aS'diag_T32'
p1427
aS'diag_T34'
p1428
aS'diag_T35'
p1429
aS'diag_T36'
p1430
aS'diag_T37'
p1431
aS'diag_T38'
p1432
aS'diag_T39'
p1433
aS'diag_T40'
p1434
aS'diag_T41'
p1435
aS'diag_T42'
p1436
aS'diag_T43'
p1437
aS'diag_T44'
p1438
aS'diag_T45'
p1439
aS'diag_T46'
p1440
aS'diag_T47'
p1441
aS'diag_T48'
p1442
aS'diag_T49'
p1443
aS'diag_T50'
p1444
aS'diag_T51'
p1445
aS'diag_T52'
p1446
aS'diag_T53'
p1447
aS'diag_T54'
p1448
aS'diag_T55'
p1449
aS'diag_T56'
p1450
aS'diag_T57'
p1451
aS'diag_T58'
p1452
aS'diag_T59'
p1453
aS'diag_T60'
p1454
aS'diag_T61'
p1455
aS'diag_T62'
p1456
aS'diag_T63'
p1457
aS'diag_T64'
p1458
aS'diag_T65'
p1459
aS'diag_T66'
p1460
aS'diag_T67'
p1461
aS'diag_T68'
p1462
aS'diag_T69'
p1463
aS'diag_T70'
p1464
aS'diag_T71'
p1465
aS'diag_T74'
p1466
aS'diag_T75'
p1467
aS'diag_T78'
p1468
aS'diag_T79'
p1469
aS'diag_T80'
p1470
aS'diag_T81'
p1471
aS'diag_T82'
p1472
aS'diag_T83'
p1473
aS'diag_T84'
p1474
aS'diag_T85'
p1475
aS'diag_T86'
p1476
aS'diag_T87'
p1477
aS'diag_T88'
p1478
aS'diag_T90'
p1479
aS'diag_Z00'
p1480
aS'diag_Z01'
p1481
aS'diag_Z02'
p1482
aS'diag_Z03'
p1483
aS'diag_Z04'
p1484
aS'diag_Z08'
p1485
aS'diag_Z09'
p1486
aS'diag_Z10'
p1487
aS'diag_Z11'
p1488
aS'diag_Z12'
p1489
aS'diag_Z13'
p1490
aS'diag_Z20'
p1491
aS'diag_Z21'
p1492
aS'diag_Z22'
p1493
aS'diag_Z23'
p1494
aS'diag_Z24'
p1495
aS'diag_Z26'
p1496
aS'diag_Z27'
p1497
aS'diag_Z29'
p1498
aS'diag_Z30'
p1499
aS'diag_Z31'
p1500
aS'diag_Z33'
p1501
aS'diag_Z34'
p1502
aS'diag_Z35'
p1503
aS'diag_Z36'
p1504
aS'diag_Z38'
p1505
aS'diag_Z39'
p1506
aS'diag_Z40'
p1507
aS'diag_Z41'
p1508
aS'diag_Z42'
p1509
aS'diag_Z43'
p1510
aS'diag_Z44'
p1511
aS'diag_Z45'
p1512
aS'diag_Z46'
p1513
aS'diag_Z47'
p1514
aS'diag_Z48'
p1515
aS'diag_Z49'
p1516
aS'diag_Z50'
p1517
aS'diag_Z51'
p1518
aS'diag_Z52'
p1519
aS'diag_Z53'
p1520
aS'diag_Z54'
p1521
aS'diag_Z56'
p1522
aS'diag_Z59'
p1523
aS'diag_Z60'
p1524
aS'diag_Z61'
p1525
aS'diag_Z62'
p1526
aS'diag_Z63'
p1527
aS'diag_Z64'
p1528
aS'diag_Z65'
p1529
aS'diag_Z71'
p1530
aS'diag_Z72'
p1531
aS'diag_Z73'
p1532
aS'diag_Z74'
p1533
aS'diag_Z75'
p1534
aS'diag_Z76'
p1535
aS'diag_Z80'
p1536
aS'diag_Z81'
p1537
aS'diag_Z82'
p1538
aS'diag_Z83'
p1539
aS'diag_Z84'
p1540
aS'diag_Z85'
p1541
aS'diag_Z86'
p1542
aS'diag_Z87'
p1543
aS'diag_Z88'
p1544
aS'diag_Z89'
p1545
aS'diag_Z90'
p1546
aS'diag_Z91'
p1547
aS'diag_Z92'
p1548
aS'diag_Z93'
p1549
aS'diag_Z94'
p1550
aS'diag_Z95'
p1551
aS'diag_Z96'
p1552
aS'diag_Z97'
p1553
aS'diag_Z98'
p1554
aS'diag_Z99'
p1555
aS'dpt_01'
p1556
aS'dpt_02'
p1557
aS'dpt_03'
p1558
aS'dpt_04'
p1559
aS'dpt_05'
p1560
aS'dpt_06'
p1561
aS'dpt_07'
p1562
aS'dpt_08'
p1563
aS'dpt_09'
p1564
aS'dpt_10'
p1565
aS'dpt_11'
p1566
aS'dpt_12'
p1567
aS'dpt_13'
p1568
aS'dpt_14'
p1569
aS'dpt_15'
p1570
aS'dpt_16'
p1571
aS'dpt_17'
p1572
aS'dpt_18'
p1573
aS'dpt_19'
p1574
aS'dpt_20'
p1575
aS'dpt_21'
p1576
aS'dpt_22'
p1577
aS'dpt_23'
p1578
aS'dpt_24'
p1579
aS'dpt_25'
p1580
aS'dpt_26'
p1581
aS'dpt_27'
p1582
aS'dpt_28'
p1583
aS'dpt_29'
p1584
aS'dpt_2A'
p1585
aS'dpt_2B'
p1586
aS'dpt_30'
p1587
aS'dpt_31'
p1588
aS'dpt_32'
p1589
aS'dpt_33'
p1590
aS'dpt_34'
p1591
aS'dpt_35'
p1592
aS'dpt_36'
p1593
aS'dpt_37'
p1594
aS'dpt_38'
p1595
aS'dpt_39'
p1596
aS'dpt_40'
p1597
aS'dpt_41'
p1598
aS'dpt_42'
p1599
aS'dpt_43'
p1600
aS'dpt_44'
p1601
aS'dpt_45'
p1602
aS'dpt_46'
p1603
aS'dpt_47'
p1604
aS'dpt_48'
p1605
aS'dpt_49'
p1606
aS'dpt_50'
p1607
aS'dpt_51'
p1608
aS'dpt_52'
p1609
aS'dpt_53'
p1610
aS'dpt_54'
p1611
aS'dpt_55'
p1612
aS'dpt_56'
p1613
aS'dpt_57'
p1614
aS'dpt_58'
p1615
aS'dpt_59'
p1616
aS'dpt_60'
p1617
aS'dpt_61'
p1618
aS'dpt_62'
p1619
aS'dpt_63'
p1620
aS'dpt_64'
p1621
aS'dpt_65'
p1622
aS'dpt_66'
p1623
aS'dpt_67'
p1624
aS'dpt_68'
p1625
aS'dpt_69'
p1626
aS'dpt_70'
p1627
aS'dpt_71'
p1628
aS'dpt_72'
p1629
aS'dpt_73'
p1630
aS'dpt_74'
p1631
aS'dpt_75'
p1632
aS'dpt_76'
p1633
aS'dpt_77'
p1634
aS'dpt_78'
p1635
aS'dpt_79'
p1636
aS'dpt_80'
p1637
aS'dpt_81'
p1638
aS'dpt_82'
p1639
aS'dpt_83'
p1640
aS'dpt_84'
p1641
aS'dpt_85'
p1642
aS'dpt_86'
p1643
aS'dpt_87'
p1644
aS'dpt_88'
p1645
aS'dpt_89'
p1646
aS'dpt_90'
p1647
aS'dpt_91'
p1648
aS'dpt_92'
p1649
aS'dpt_93'
p1650
aS'dpt_94'
p1651
aS'dpt_95'
p1652
aS'dpt_97'
p1653
aS'dpt_98'
p1654
aS'private'
p1655
aS'sex'
p1656
aS'stay_length_0'
p1657
aS'stay_length_1'
p1658
aS'stay_length_10'
p1659
aS'stay_length_15'
p1660
aS'stay_length_2'
p1661
aS'stay_length_20'
p1662
aS'stay_length_25'
p1663
aS'stay_length_3'
p1664
aS'stay_length_30'
p1665
aS'stay_length_35'
p1666
aS'stay_length_4'
p1667
aS'stay_length_40'
p1668
aS'stay_length_45'
p1669
aS'stay_length_5'
p1670
aS'stay_length_50'
p1671
aS'stay_length_55'
p1672
aS'stay_length_60'
p1673
aS'type_ghm_C'
p1674
aS'type_ghm_K'
p1675
aS'type_ghm_M'
p1676
aS'type_ghm_Z'
p1677
aS'type_um_01A'
p1678
aS'type_um_01B'
p1679
aS'type_um_02A'
p1680
aS'type_um_02B'
p1681
aS'type_um_03A'
p1682
aS'type_um_03B'
p1683
aS'type_um_04'
p1684
aS'type_um_05'
p1685
aS'type_um_06'
p1686
aS'type_um_07A'
p1687
aS'type_um_07B'
p1688
aS'type_um_08'
p1689
aS'type_um_11'
p1690
aS'type_um_12'
p1691
aS'type_um_13A'
p1692
aS'type_um_13B'
p1693
aS'type_um_14A'
p1694
aS'type_um_14B'
p1695
aS'type_um_16'
p1696
aS'type_um_17'
p1697
aS'type_um_18'
p1698
aS'type_um_19'
p1699
aS'type_um_20'
p1700
aS'type_um_21'
p1701
aS'type_um_22'
p1702
aS'type_um_23'
p1703
aS'type_um_26'
p1704
aS'type_um_27'
p1705
aS'type_um_28'
p1706
aS'type_um_29'
p1707
aS'type_um_30'
p1708
aS'type_um_34'
p1709
aS'type_um_36'
p1710
aS'type_um_37'
p1711
aS'type_um_40'
p1712
aS'type_um_41'
p1713
aS'type_um_42'
p1714
aS'type_um_43'
p1715
aS'type_um_50'
p1716
aS'type_um_51'
p1717
aS'type_um_52'
p1718
aS'type_um_53'
p1719
aS'type_um_60'
p1720
aS'type_um_61'
p1721
aS'type_um_70'
p1722
aS'type_um_71'
p1723
aS'type_um_72'
p1724
aS'type_um_73'
p1725
a.