(dp0
S'diag_J15'
p1
I783
sS'diag_J14'
p2
I782
sS'diag_J17'
p3
I785
sS'type_ghm_Z'
p4
I2236
sS'diag_J11'
p5
I779
sS'type_ghm_C'
p6
I2232
sS'type_ghm_M'
p7
I2235
sS'type_ghm_K'
p8
I2234
sS'stay_length_10'
p9
I2216
sS'stay_length_15'
p10
I2217
sS'diag_J10'
p11
I778
sS'diag_E85'
p12
I470
sS'diag_E84'
p13
I469
sS'diag_E87'
p14
I472
sS'diag_E86'
p15
I471
sS'diag_E80'
p16
I467
sS'diag_E83'
p17
I468
sS'diag_E89'
p18
I474
sS'diag_E88'
p19
I473
sS'diag_G43'
p20
I584
sS'type_um_61'
p21
I2281
sS'diag_G41'
p22
I583
sS'diag_G40'
p23
I582
sS'diag_G47'
p24
I588
sS'diag_G46'
p25
I587
sS'diag_G45'
p26
I586
sS'diag_G44'
p27
I585
sS'diag_B19'
p28
I160
sS'diag_B18'
p29
I159
sS'diag_A26'
p30
I81
sS'diag_K65'
p31
I884
sS'diag_E68'
p32
I456
sS'diag_E63'
p33
I451
sS'diag_K46'
p34
I870
sS'diag_K45'
p35
I869
sS'diag_E60'
p36
I449
sS'diag_K43'
p37
I867
sS'diag_K42'
p38
I866
sS'diag_K41'
p39
I865
sS'diag_K40'
p40
I864
sS'diag_M89'
p41
I1048
sS'diag_M88'
p42
I1047
sS'diag_M85'
p43
I1044
sS'diag_E45'
p44
I438
sS'diag_M87'
p45
I1046
sS'diag_M86'
p46
I1045
sS'diag_M81'
p47
I1040
sS'diag_M80'
p48
I1039
sS'diag_M83'
p49
I1042
sS'diag_M82'
p50
I1041
sS'diag_E46'
p51
I439
sS'diag_A09'
p52
I69
sS'diag_A08'
p53
I68
sS'diag_A01'
p54
I61
sS'diag_A00'
p55
I60
sS'diag_A03'
p56
I63
sS'diag_A02'
p57
I62
sS'diag_A05'
p58
I65
sS'diag_A04'
p59
I64
sS'diag_A07'
p60
I67
sS'diag_A06'
p61
I66
sS'diag_O61'
p62
I1181
sS'diag_O60'
p63
I1180
sS'diag_O63'
p64
I1183
sS'diag_O62'
p65
I1182
sS'diag_O65'
p66
I1185
sS'diag_O64'
p67
I1184
sS'diag_O67'
p68
I1187
sS'diag_O66'
p69
I1186
sS'diag_O69'
p70
I1189
sS'diag_O68'
p71
I1188
sS'diag_C69'
p72
I294
sS'diag_C68'
p73
I293
sS'diag_C65'
p74
I290
sS'diag_C64'
p75
I289
sS'diag_C67'
p76
I292
sS'diag_C66'
p77
I291
sS'diag_C61'
p78
I286
sS'diag_C60'
p79
I285
sS'diag_C63'
p80
I288
sS'diag_C62'
p81
I287
sS'diag_R15'
p82
I1375
sS'diag_R14'
p83
I1374
sS'diag_R17'
p84
I1377
sS'diag_R16'
p85
I1376
sS'diag_R11'
p86
I1371
sS'diag_R10'
p87
I1370
sS'diag_R13'
p88
I1373
sS'diag_R12'
p89
I1372
sS'diag_R19'
p90
I1379
sS'diag_R18'
p91
I1378
sS'type_um_13B'
p92
I2252
sS'type_um_13A'
p93
I2251
sS'diag_I67'
p94
I745
sS'diag_I66'
p95
I744
sS'diag_I65'
p96
I743
sS'diag_I64'
p97
I742
sS'diag_I63'
p98
I741
sS'diag_I62'
p99
I740
sS'diag_I61'
p100
I739
sS'diag_I60'
p101
I738
sS'diag_I69'
p102
I747
sS'diag_I68'
p103
I746
sS'diag_Q01'
p104
I1275
sS'diag_Q03'
p105
I1277
sS'diag_Q02'
p106
I1276
sS'diag_Q05'
p107
I1279
sS'diag_Q04'
p108
I1278
sS'diag_Q07'
p109
I1281
sS'diag_Q06'
p110
I1280
sS'diag_H19'
p111
I636
sS'diag_H18'
p112
I635
sS'diag_H13'
p113
I631
sS'diag_H11'
p114
I630
sS'diag_H10'
p115
I629
sS'diag_H17'
p116
I634
sS'diag_H16'
p117
I633
sS'diag_H15'
p118
I632
sS'diag_S69'
p119
I1521
sS'diag_S68'
p120
I1520
sS'diag_S65'
p121
I1517
sS'diag_S64'
p122
I1516
sS'diag_S67'
p123
I1519
sS'diag_S66'
p124
I1518
sS'diag_S61'
p125
I1513
sS'diag_S60'
p126
I1512
sS'diag_S63'
p127
I1515
sS'diag_S62'
p128
I1514
sS'diag_A30'
p129
I84
sS'stay_length_4'
p130
I2224
sS'stay_length_5'
p131
I2227
sS'stay_length_2'
p132
I2218
sS'stay_length_3'
p133
I2221
sS'stay_length_0'
p134
I2214
sS'stay_length_1'
p135
I2215
sS'diag_B58'
p136
I195
sS'diag_B07'
p137
I153
sS'diag_G72'
p138
I606
sS'diag_G73'
p139
I607
sS'diag_G70'
p140
I604
sS'diag_G71'
p141
I605
sS'diag_K72'
p142
I889
sS'diag_K73'
p143
I890
sS'diag_K70'
p144
I887
sS'diag_K71'
p145
I888
sS'diag_K76'
p146
I893
sS'diag_K77'
p147
I894
sS'diag_K74'
p148
I891
sS'diag_E59'
p149
I448
sS'diag_E56'
p150
I446
sS'diag_E54'
p151
I444
sS'diag_E55'
p152
I445
sS'diag_E53'
p153
I443
sS'diag_E50'
p154
I440
sS'diag_E51'
p155
I441
sS'diag_M70'
p156
I1031
sS'diag_M71'
p157
I1032
sS'diag_M72'
p158
I1033
sS'diag_M75'
p159
I1035
sS'diag_M76'
p160
I1036
sS'diag_M77'
p161
I1037
sS'diag_M79'
p162
I1038
sS'diag_D89'
p163
I402
sS'diag_D84'
p164
I400
sS'diag_D86'
p165
I401
sS'diag_D80'
p166
I396
sS'diag_D81'
p167
I397
sS'diag_D82'
p168
I398
sS'diag_D83'
p169
I399
sS'diag_A78'
p170
I125
sS'diag_A79'
p171
I126
sS'diag_A74'
p172
I122
sS'diag_A77'
p173
I124
sS'diag_O14'
p174
I1152
sS'diag_O15'
p175
I1153
sS'diag_O16'
p176
I1154
sS'diag_O10'
p177
I1148
sS'diag_O11'
p178
I1149
sS'diag_O12'
p179
I1150
sS'diag_O13'
p180
I1151
sS'diag_L84'
p181
I963
sS'diag_L85'
p182
I964
sS'diag_L86'
p183
I965
sS'diag_L87'
p184
I966
sS'diag_L81'
p185
I960
sS'diag_L82'
p186
I961
sS'diag_L83'
p187
I962
sS'diag_L88'
p188
I967
sS'diag_L89'
p189
I968
sS'diag_C90'
p190
I313
sS'diag_C91'
p191
I314
sS'diag_C92'
p192
I315
sS'diag_C93'
p193
I316
sS'diag_C94'
p194
I317
sS'diag_C95'
p195
I318
sS'diag_C96'
p196
I319
sS'diag_N28'
p197
I1083
sS'diag_N29'
p198
I1084
sS'diag_N20'
p199
I1076
sS'diag_N21'
p200
I1077
sS'diag_I50'
p201
I735
sS'diag_I51'
p202
I736
sS'diag_N25'
p203
I1080
sS'diag_N26'
p204
I1081
sS'diag_N27'
p205
I1082
sS'diag_K90'
p206
I902
sS'diag_K91'
p207
I903
sS'diag_K92'
p208
I904
sS'diag_K93'
p209
I905
sS'diag_D27'
p210
I347
sS'diag_D24'
p211
I344
sS'diag_Q78'
p212
I1341
sS'diag_Q79'
p213
I1342
sS'diag_Q74'
p214
I1337
sS'diag_Q75'
p215
I1338
sS'diag_Q76'
p216
I1339
sS'diag_Q77'
p217
I1340
sS'diag_Q70'
p218
I1333
sS'diag_Q71'
p219
I1334
sS'diag_Q72'
p220
I1335
sS'diag_Q73'
p221
I1336
sS'diag_H28'
p222
I643
sS'dpt_59'
p223
I2172
sS'dpt_56'
p224
I2169
sS'diag_H27'
p225
I642
sS'dpt_54'
p226
I2167
sS'dpt_55'
p227
I2168
sS'diag_H22'
p228
I639
sS'dpt_53'
p229
I2166
sS'diag_H20'
p230
I637
sS'diag_H21'
p231
I638
sS'diag_S90'
p232
I1542
sS'diag_S91'
p233
I1543
sS'diag_S92'
p234
I1544
sS'diag_S93'
p235
I1545
sS'diag_S95'
p236
I1547
sS'diag_S96'
p237
I1548
sS'diag_S97'
p238
I1549
sS'diag_S98'
p239
I1550
sS'diag_S99'
p240
I1551
sS'diag_P00'
p241
I1215
sS'diag_P01'
p242
I1216
sS'diag_P02'
p243
I1217
sS'diag_P03'
p244
I1218
sS'diag_P04'
p245
I1219
sS'diag_P05'
p246
I1220
sS'diag_P07'
p247
I1221
sS'diag_P08'
p248
I1222
sS'diag_T88'
p249
I1637
sS'diag_T84'
p250
I1633
sS'diag_T85'
p251
I1634
sS'diag_T86'
p252
I1635
sS'diag_T87'
p253
I1636
sS'diag_T80'
p254
I1629
sS'diag_T81'
p255
I1630
sS'diag_T82'
p256
I1631
sS'diag_T83'
p257
I1632
sS'diag_I45'
p258
I730
sS'diag_N32'
p259
I1087
sS'diag_I47'
p260
I732
sS'diag_M17'
p261
I994
sS'diag_I46'
p262
I731
sS'diag_I41'
p263
I726
sS'diag_M15'
p264
I992
sS'diag_I40'
p265
I725
sS'diag_I43'
p266
I728
sS'diag_G93'
p267
I615
sS'diag_I42'
p268
I727
sS'diag_G61'
p269
I600
sS'diag_G60'
p270
I599
sS'diag_G63'
p271
I602
sS'diag_G62'
p272
I601
sS'diag_G64'
p273
I603
sS'type_um_71'
p274
I2283
sS'diag_E41'
p275
I434
sS'diag_E40'
p276
I433
sS'diag_K67'
p277
I886
sS'diag_K66'
p278
I885
sS'diag_K61'
p279
I880
sS'diag_E44'
p280
I437
sS'diag_K63'
p281
I882
sS'diag_K62'
p282
I881
sS'diag_M63'
p283
I1026
sS'diag_M62'
p284
I1025
sS'diag_M61'
p285
I1024
sS'diag_M60'
p286
I1023
sS'diag_M67'
p287
I1029
sS'diag_M66'
p288
I1028
sS'diag_M65'
p289
I1027
sS'diag_M68'
p290
I1030
sS'diag_B15'
p291
I156
sS'diag_B17'
p292
I158
sS'diag_B16'
p293
I157
sS'diag_A69'
p294
I119
sS'diag_A68'
p295
I118
sS'diag_A63'
p296
I113
sS'diag_A60'
p297
I112
sS'diag_O07'
p298
I1146
sS'diag_O06'
p299
I1145
sS'diag_O05'
p300
I1144
sS'diag_O04'
p301
I1143
sS'diag_O03'
p302
I1142
sS'diag_O02'
p303
I1141
sS'diag_O01'
p304
I1140
sS'diag_O00'
p305
I1139
sS'diag_Q60'
p306
I1323
sS'diag_O08'
p307
I1147
sS'diag_L97'
p308
I975
sS'diag_L95'
p309
I974
sS'diag_L94'
p310
I973
sS'diag_L93'
p311
I972
sS'diag_L92'
p312
I971
sS'diag_L91'
p313
I970
sS'diag_L90'
p314
I969
sS'diag_L99'
p315
I977
sS'diag_L98'
p316
I976
sS'diag_C83'
p317
I308
sS'diag_C82'
p318
I307
sS'diag_C81'
p319
I306
sS'diag_C80'
p320
I305
sS'diag_C86'
p321
I311
sS'diag_C85'
p322
I310
sS'diag_C84'
p323
I309
sS'diag_C88'
p324
I312
sS'diag_N39'
p325
I1093
sS'diag_I49'
p326
I734
sS'diag_I48'
p327
I733
sS'diag_N33'
p328
I1088
sS'diag_I44'
p329
I729
sS'diag_N31'
p330
I1086
sS'diag_N30'
p331
I1085
sS'diag_N37'
p332
I1092
sS'diag_N36'
p333
I1091
sS'diag_N35'
p334
I1090
sS'diag_N34'
p335
I1089
sS'diag_K83'
p336
I898
sS'diag_K82'
p337
I897
sS'diag_K81'
p338
I896
sS'diag_K80'
p339
I895
sS'diag_K87'
p340
I901
sS'diag_K86'
p341
I900
sS'diag_K85'
p342
I899
sS'diag_E61'
p343
I450
sS'diag_K44'
p344
I868
sS'diag_Q69'
p345
I1332
sS'diag_Q68'
p346
I1331
sS'diag_Q67'
p347
I1330
sS'diag_Q66'
p348
I1329
sS'diag_Q65'
p349
I1328
sS'diag_Q64'
p350
I1327
sS'diag_Q63'
p351
I1326
sS'diag_Q62'
p352
I1325
sS'diag_Q61'
p353
I1324
sS'diag_E66'
p354
I454
sS'diag_E65'
p355
I453
sS'dpt_49'
p356
I2162
sS'dpt_48'
p357
I2161
sS'diag_H31'
p358
I645
sS'diag_H30'
p359
I644
sS'diag_H33'
p360
I647
sS'diag_H32'
p361
I646
sS'diag_H35'
p362
I649
sS'diag_H34'
p363
I648
sS'diag_H36'
p364
I650
sS'dpt_45'
p365
I2158
sS'dpt_44'
p366
I2157
sS'dpt_47'
p367
I2160
sS'dpt_46'
p368
I2159
sS'dpt_41'
p369
I2154
sS'dpt_40'
p370
I2153
sS'dpt_43'
p371
I2156
sS'dpt_42'
p372
I2155
sS'diag_S83'
p373
I1535
sS'diag_S82'
p374
I1534
sS'diag_S81'
p375
I1533
sS'diag_S80'
p376
I1532
sS'diag_S87'
p377
I1539
sS'diag_S86'
p378
I1538
sS'diag_S85'
p379
I1537
sS'diag_S84'
p380
I1536
sS'diag_S89'
p381
I1541
sS'diag_S88'
p382
I1540
sS'diag_P13'
p383
I1226
sS'diag_P12'
p384
I1225
sS'diag_P10'
p385
I1223
sS'diag_M84'
p386
I1043
sS'cmd_23'
p387
I38
sS'diag_T95'
p388
I1643
sS'diag_T93'
p389
I1641
sS'diag_T90'
p390
I1638
sS'cmd_22'
p391
I37
sS'cmd_27'
p392
I42
sS'type_um_60'
p393
I2280
sS'stay_length_60'
p394
I2230
sS'diag_P14'
p395
I1227
sS'diag_G14'
p396
I568
sS'diag_G10'
p397
I564
sS'diag_G11'
p398
I565
sS'diag_G12'
p399
I566
sS'diag_G13'
p400
I567
sS'diag_N42'
p401
I1096
sS'diag_N43'
p402
I1097
sS'diag_N40'
p403
I1094
sS'diag_E34'
p404
I431
sS'diag_E35'
p405
I432
sS'diag_N41'
p406
I1095
sS'diag_E30'
p407
I428
sS'diag_E31'
p408
I429
sS'diag_E32'
p409
I430
sS'diag_N46'
p410
I1100
sS'diag_N47'
p411
I1101
sS'diag_M54'
p412
I1022
sS'diag_N44'
p413
I1098
sS'diag_M50'
p414
I1019
sS'diag_M51'
p415
I1020
sS'diag_N45'
p416
I1099
sS'diag_F20'
p417
I495
sS'diag_F21'
p418
I496
sS'diag_F22'
p419
I497
sS'diag_F23'
p420
I498
sS'diag_A56'
p421
I108
sS'diag_F25'
p422
I500
sS'diag_A54'
p423
I106
sS'diag_A55'
p424
I107
sS'diag_F28'
p425
I501
sS'diag_F29'
p426
I502
sS'diag_D48'
p427
I368
sS'diag_D40'
p428
I360
sS'diag_D41'
p429
I361
sS'diag_D42'
p430
I362
sS'diag_D43'
p431
I363
sS'diag_D44'
p432
I364
sS'diag_D45'
p433
I365
sS'diag_D46'
p434
I366
sS'diag_D47'
p435
I367
sS'diag_N08'
p436
I1065
sS'diag_N06'
p437
I1063
sS'diag_N07'
p438
I1064
sS'diag_N04'
p439
I1061
sS'diag_N05'
p440
I1062
sS'diag_N02'
p441
I1059
sS'diag_N03'
p442
I1060
sS'diag_N00'
p443
I1057
sS'diag_N01'
p444
I1058
sS'diag_Q52'
p445
I1318
sS'diag_Q53'
p446
I1319
sS'diag_Q50'
p447
I1316
sS'diag_Q51'
p448
I1317
sS'diag_Q56'
p449
I1322
sS'diag_Q54'
p450
I1320
sS'diag_Q55'
p451
I1321
sS'diag_Z88'
p452
I2100
sS'dpt_78'
p453
I2191
sS'dpt_79'
p454
I2192
sS'diag_H46'
p455
I656
sS'diag_H47'
p456
I657
sS'diag_H40'
p457
I651
sS'diag_H42'
p458
I652
sS'diag_H43'
p459
I653
sS'dpt_70'
p460
I2183
sS'dpt_71'
p461
I2184
sS'dpt_72'
p462
I2185
sS'dpt_73'
p463
I2186
sS'dpt_74'
p464
I2187
sS'dpt_75'
p465
I2188
sS'dpt_76'
p466
I2189
sS'dpt_77'
p467
I2190
sS'diag_P27'
p468
I1236
sS'diag_P24'
p469
I1233
sS'diag_P25'
p470
I1234
sS'diag_P22'
p471
I1231
sS'diag_P23'
p472
I1232
sS'diag_P20'
p473
I1229
sS'diag_P21'
p474
I1230
sS'diag_P28'
p475
I1237
sS'diag_P29'
p476
I1238
sS'diag_T48'
p477
I1600
sS'diag_T49'
p478
I1601
sS'diag_T40'
p479
I1592
sS'diag_T41'
p480
I1593
sS'diag_T42'
p481
I1594
sS'diag_T43'
p482
I1595
sS'diag_T44'
p483
I1596
sS'diag_T45'
p484
I1597
sS'diag_T46'
p485
I1598
sS'diag_T47'
p486
I1599
sS'diag_A23'
p487
I78
sS'diag_F95'
p488
I551
sS'diag_L30'
p489
I928
sS'diag_M34'
p490
I1007
sS'age_45'
p491
I8
sS'diag_B80'
p492
I214
sS'age_40'
p493
I7
sS'stay_length_35'
p494
I2223
sS'diag_B86'
p495
I219
sS'diag_B85'
p496
I218
sS'diag_G08'
p497
I562
sS'diag_G07'
p498
I561
sS'diag_G06'
p499
I560
sS'diag_G05'
p500
I559
sS'diag_G04'
p501
I558
sS'diag_G03'
p502
I557
sS'diag_G02'
p503
I556
sS'diag_G01'
p504
I555
sS'diag_G00'
p505
I554
sS'diag_J46'
p506
I806
sS'diag_J95'
p507
I830
sS'diag_E27'
p508
I425
sS'diag_E26'
p509
I424
sS'diag_E25'
p510
I423
sS'diag_E24'
p511
I422
sS'diag_E23'
p512
I421
sS'diag_E22'
p513
I420
sS'diag_E21'
p514
I419
sS'diag_E20'
p515
I418
sS'diag_M41'
p516
I1011
sS'diag_M40'
p517
I1010
sS'diag_M43'
p518
I1013
sS'diag_M45'
p519
I1014
sS'diag_M47'
p520
I1016
sS'diag_M46'
p521
I1015
sS'diag_F33'
p522
I506
sS'diag_A44'
p523
I98
sS'diag_F31'
p524
I504
sS'diag_A46'
p525
I99
sS'diag_A41'
p526
I95
sS'diag_A40'
p527
I94
sS'diag_A43'
p528
I97
sS'diag_A42'
p529
I96
sS'stay_length_55'
p530
I2229
sS'diag_F39'
p531
I509
sS'diag_F38'
p532
I508
sS'stay_length_50'
p533
I2228
sS'diag_A48'
p534
I100
sS'diag_D59'
p535
I377
sS'diag_D58'
p536
I376
sS'diag_O28'
p537
I1162
sS'diag_D53'
p538
I372
sS'diag_D52'
p539
I371
sS'diag_D51'
p540
I370
sS'diag_D50'
p541
I369
sS'diag_D57'
p542
I375
sS'diag_D56'
p543
I374
sS'diag_D55'
p544
I373
sS'diag_O22'
p545
I1157
sS'diag_N11'
p546
I1067
sS'diag_N10'
p547
I1066
sS'diag_N13'
p548
I1069
sS'diag_N12'
p549
I1068
sS'diag_N15'
p550
I1071
sS'diag_N14'
p551
I1070
sS'diag_N17'
p552
I1073
sS'diag_N16'
p553
I1072
sS'diag_N19'
p554
I1075
sS'diag_N18'
p555
I1074
sS'complexity_ghm_Z'
p556
I59
sS'diag_Q45'
p557
I1315
sS'diag_Q44'
p558
I1314
sS'diag_Q41'
p559
I1311
sS'diag_Q40'
p560
I1310
sS'diag_Q43'
p561
I1313
sS'diag_Q42'
p562
I1312
sS'dpt_67'
p563
I2180
sS'dpt_66'
p564
I2179
sS'dpt_65'
p565
I2178
sS'dpt_64'
p566
I2177
sS'dpt_63'
p567
I2176
sS'dpt_62'
p568
I2175
sS'dpt_61'
p569
I2174
sS'dpt_60'
p570
I2173
sS'dpt_69'
p571
I2182
sS'dpt_68'
p572
I2181
sS'diag_H57'
p573
I666
sS'diag_H55'
p574
I665
sS'diag_H54'
p575
I664
sS'diag_H53'
p576
I663
sS'diag_H52'
p577
I662
sS'diag_H51'
p578
I661
sS'diag_H50'
p579
I660
sS'type_um_42'
p580
I2274
sS'diag_H59'
p581
I668
sS'diag_H58'
p582
I667
sS'type_um_41'
p583
I2273
sS'diag_P39'
p584
I1243
sS'diag_P38'
p585
I1242
sS'diag_K28'
p586
I856
sS'diag_P35'
p587
I1239
sS'diag_P37'
p588
I1241
sS'diag_P36'
p589
I1240
sS'diag_D68'
p590
I386
sS'diag_J85'
p591
I823
sS'diag_T59'
p592
I1611
sS'diag_T58'
p593
I1610
sS'diag_C49'
p594
I275
sS'diag_T53'
p595
I1605
sS'diag_T52'
p596
I1604
sS'diag_T51'
p597
I1603
sS'diag_T50'
p598
I1602
sS'diag_T57'
p599
I1609
sS'diag_T56'
p600
I1608
sS'diag_T55'
p601
I1607
sS'diag_T54'
p602
I1606
sS'diag_K60'
p603
I879
sS'age_0'
p604
I0
sS'age_5'
p605
I9
sS'age_55'
p606
I11
sS'age_50'
p607
I10
sS'diag_Z82'
p608
I2094
sS'diag_Z83'
p609
I2095
sS'diag_Z80'
p610
I2092
sS'diag_Z81'
p611
I2093
sS'diag_Z86'
p612
I2098
sS'diag_Z87'
p613
I2099
sS'diag_Z84'
p614
I2096
sS'diag_Z85'
p615
I2097
sS'complexity_ghm_4'
p616
I48
sS'diag_Z89'
p617
I2101
sS'complexity_ghm_2'
p618
I46
sS'complexity_ghm_3'
p619
I47
sS'complexity_ghm_1'
p620
I45
sS'diag_G32'
p621
I578
sS'diag_G30'
p622
I576
sS'diag_G31'
p623
I577
sS'diag_G36'
p624
I580
sS'diag_G37'
p625
I581
sS'diag_G35'
p626
I579
sS'diag_B82'
p627
I216
sS'diag_M35'
p628
I1008
sS'diag_M36'
p629
I1009
sS'diag_B81'
p630
I215
sS'diag_M30'
p631
I1003
sS'diag_M31'
p632
I1004
sS'diag_M32'
p633
I1005
sS'diag_M33'
p634
I1006
sS'diag_Z60'
p635
I2079
sS'diag_Z61'
p636
I2080
sS'diag_Z62'
p637
I2081
sS'diag_E11'
p638
I412
sS'complexity_ghm_J'
p639
I54
sS'diag_Z64'
p640
I2083
sS'complexity_ghm_D'
p641
I52
sS'complexity_ghm_B'
p642
I50
sS'complexity_ghm_C'
p643
I51
sS'complexity_ghm_A'
p644
I49
sS'diag_F06'
p645
I482
sS'diag_F07'
p646
I483
sS'diag_F04'
p647
I480
sS'diag_F05'
p648
I481
sS'diag_F02'
p649
I478
sS'diag_F03'
p650
I479
sS'diag_F00'
p651
I476
sS'diag_F01'
p652
I477
sS'complexity_ghm_T'
p653
I56
sS'stay_length_40'
p654
I2225
sS'complexity_ghm_S'
p655
I55
sS'stay_length_45'
p656
I2226
sS'diag_F09'
p657
I484
sS'diag_J82'
p658
I821
sS'diag_J80'
p659
I819
sS'diag_J81'
p660
I820
sS'diag_J86'
p661
I824
sS'diag_J84'
p662
I822
sS'diag_D69'
p663
I387
sS'diag_D66'
p664
I384
sS'diag_D67'
p665
I385
sS'diag_D64'
p666
I382
sS'diag_D65'
p667
I383
sS'diag_D62'
p668
I380
sS'diag_D63'
p669
I381
sS'diag_D60'
p670
I378
sS'diag_D61'
p671
I379
sS'diag_L40'
p672
I929
sS'diag_L41'
p673
I930
sS'diag_L42'
p674
I931
sS'diag_L43'
p675
I932
sS'diag_L44'
p676
I933
sS'diag_A96'
p677
I143
sS'diag_A90'
p678
I137
sS'diag_A91'
p679
I138
sS'diag_E12'
p680
I413
sS'diag_E13'
p681
I414
sS'diag_E10'
p682
I411
sS'diag_Z63'
p683
I2082
sS'diag_E16'
p684
I417
sS'diag_Z65'
p685
I2084
sS'diag_E14'
p686
I415
sS'diag_E15'
p687
I416
sS'diag_N64'
p688
I1110
sS'diag_I97'
p689
I767
sS'diag_I95'
p690
I766
sS'diag_N60'
p691
I1106
sS'diag_N61'
p692
I1107
sS'diag_N62'
p693
I1108
sS'diag_N63'
p694
I1109
sS'diag_I98'
p695
I768
sS'dpt_12'
p696
I2123
sS'dpt_13'
p697
I2124
sS'dpt_10'
p698
I2121
sS'dpt_11'
p699
I2122
sS'dpt_16'
p700
I2127
sS'dpt_17'
p701
I2128
sS'dpt_14'
p702
I2125
sS'dpt_15'
p703
I2126
sS'diag_H62'
p704
I671
sS'diag_G83'
p705
I611
sS'diag_H60'
p706
I669
sS'dpt_19'
p707
I2130
sS'diag_H66'
p708
I673
sS'diag_H67'
p709
I674
sS'diag_H65'
p710
I672
sS'diag_J68'
p711
I816
sS'diag_J69'
p712
I817
sS'diag_J16'
p713
I784
sS'diag_G81'
p714
I609
sS'diag_J60'
p715
I808
sS'diag_J61'
p716
I809
sS'diag_J62'
p717
I810
sS'diag_G80'
p718
I608
sS'diag_J64'
p719
I812
sS'diag_J66'
p720
I814
sS'diag_J67'
p721
I815
sS'diag_J13'
p722
I781
sS'diag_J12'
p723
I780
sS'diag_R89'
p724
I1442
sS'diag_R82'
p725
I1436
sS'diag_R80'
p726
I1434
sS'diag_R86'
p727
I1440
sS'diag_R87'
p728
I1441
sS'diag_R84'
p729
I1438
sS'diag_R85'
p730
I1439
sS'diag_T68'
p731
I1620
sS'diag_T69'
p732
I1621
sS'diag_T66'
p733
I1618
sS'diag_T67'
p734
I1619
sS'diag_T65'
p735
I1617
sS'diag_T62'
p736
I1614
sS'diag_T63'
p737
I1615
sS'diag_T60'
p738
I1612
sS'diag_T61'
p739
I1613
sS'diag_Q98'
p740
I1359
sS'diag_Q99'
p741
I1360
sS'diag_Q96'
p742
I1357
sS'diag_Q97'
p743
I1358
sS'diag_Q93'
p744
I1355
sS'diag_Q90'
p745
I1352
sS'type_um_70'
p746
I2282
sS'age_60'
p747
I12
sS'age_65'
p748
I13
sS'diag_Z95'
p749
I2107
sS'diag_Z94'
p750
I2106
sS'diag_Z97'
p751
I2109
sS'diag_Z96'
p752
I2108
sS'diag_Z91'
p753
I2103
sS'diag_Z90'
p754
I2102
sS'diag_Z93'
p755
I2105
sS'diag_Z92'
p756
I2104
sS'diag_Z99'
p757
I2111
sS'diag_Z98'
p758
I2110
sS'diag_G25'
p759
I574
sS'diag_G24'
p760
I573
sS'diag_G26'
p761
I575
sS'diag_G21'
p762
I570
sS'diag_G20'
p763
I569
sS'diag_G23'
p764
I572
sS'diag_G22'
p765
I571
sS'type_um_01B'
p766
I2238
sS'diag_B99'
p767
I231
sS'diag_M25'
p768
I1002
sS'diag_M24'
p769
I1001
sS'diag_B91'
p770
I224
sS'diag_M22'
p771
I999
sS'diag_M21'
p772
I998
sS'diag_M20'
p773
I997
sS'dpt_18'
p774
I2129
sS'diag_F19'
p775
I494
sS'diag_F18'
p776
I493
sS'diag_H61'
p777
I670
sS'diag_F11'
p778
I486
sS'diag_F10'
p779
I485
sS'diag_F13'
p780
I488
sS'diag_F12'
p781
I487
sS'diag_F15'
p782
I490
sS'diag_F14'
p783
I489
sS'diag_F17'
p784
I492
sS'diag_F16'
p785
I491
sS'diag_D71'
p786
I389
sS'diag_J94'
p787
I829
sS'diag_D73'
p788
I391
sS'diag_D72'
p789
I390
sS'diag_D75'
p790
I393
sS'diag_D74'
p791
I392
sS'diag_D77'
p792
I395
sS'diag_J92'
p793
I827
sS'diag_J99'
p794
I833
sS'diag_J98'
p795
I832
sS'diag_L53'
p796
I938
sS'diag_L52'
p797
I937
sS'diag_L51'
p798
I936
sS'diag_L50'
p799
I935
sS'diag_L57'
p800
I942
sS'diag_L56'
p801
I941
sS'diag_L55'
p802
I940
sS'diag_L54'
p803
I939
sS'diag_A88'
p804
I135
sS'diag_L59'
p805
I944
sS'diag_L58'
p806
I943
sS'diag_I07'
p807
I698
sS'diag_I06'
p808
I697
sS'diag_E05'
p809
I408
sS'diag_E04'
p810
I407
sS'diag_E07'
p811
I410
sS'diag_E06'
p812
I409
sS'diag_E01'
p813
I404
sS'diag_Z76'
p814
I2091
sS'diag_E03'
p815
I406
sS'diag_Z74'
p816
I2089
sS'diag_I89'
p817
I765
sS'diag_I88'
p818
I764
sS'diag_I81'
p819
I757
sS'diag_I80'
p820
I756
sS'diag_I83'
p821
I759
sS'diag_I82'
p822
I758
sS'diag_I85'
p823
I761
sS'diag_I84'
p824
I760
sS'diag_I87'
p825
I763
sS'diag_I86'
p826
I762
sS'diag_N77'
p827
I1118
sS'diag_N76'
p828
I1117
sS'diag_N75'
p829
I1116
sS'diag_N74'
p830
I1115
sS'diag_N73'
p831
I1114
sS'diag_N72'
p832
I1113
sS'diag_N71'
p833
I1112
sS'diag_N70'
p834
I1111
sS'dpt_01'
p835
I2112
sS'dpt_03'
p836
I2114
sS'dpt_02'
p837
I2113
sS'dpt_05'
p838
I2116
sS'dpt_04'
p839
I2115
sS'dpt_07'
p840
I2118
sS'dpt_06'
p841
I2117
sS'dpt_09'
p842
I2120
sS'diag_H74'
p843
I681
sS'diag_H71'
p844
I678
sS'diag_H70'
p845
I677
sS'diag_H73'
p846
I680
sS'diag_H72'
p847
I679
sS'diag_J70'
p848
I818
sS'diag_P59'
p849
I1253
sS'diag_P58'
p850
I1252
sS'diag_P57'
p851
I1251
sS'diag_P55'
p852
I1249
sS'diag_P54'
p853
I1248
sS'diag_P52'
p854
I1246
sS'diag_P50'
p855
I1244
sS'diag_R94'
p856
I1447
sS'diag_R91'
p857
I1444
sS'diag_R90'
p858
I1443
sS'diag_R93'
p859
I1446
sS'diag_R92'
p860
I1445
sS'diag_A52'
p861
I104
sS'diag_A53'
p862
I105
sS'diag_A51'
p863
I103
sS'diag_T71'
p864
I1623
sS'diag_T70'
p865
I1622
sS'type_um_02A'
p866
I2239
sS'diag_T74'
p867
I1625
sS'type_um_02B'
p868
I2240
sS'diag_T79'
p869
I1628
sS'diag_T78'
p870
I1627
sS'diag_Q81'
p871
I1344
sS'diag_Q80'
p872
I1343
sS'diag_Q83'
p873
I1346
sS'diag_Q82'
p874
I1345
sS'diag_Q85'
p875
I1348
sS'diag_Q84'
p876
I1347
sS'diag_Q87'
p877
I1350
sS'diag_Q86'
p878
I1349
sS'diag_Q89'
p879
I1351
sS'diag_B57'
p880
I194
sS'diag_O32'
p881
I1166
sS'diag_O33'
p882
I1167
sS'type_um_34'
p883
I2268
sS'diag_O30'
p884
I1164
sS'diag_O31'
p885
I1165
sS'diag_O36'
p886
I1170
sS'diag_O34'
p887
I1168
sS'diag_O35'
p888
I1169
sS'age_75'
p889
I15
sS'age_70'
p890
I14
sS'diag_M12'
p891
I989
sS'diag_M13'
p892
I990
sS'diag_M10'
p893
I987
sS'diag_M11'
p894
I988
sS'diag_M16'
p895
I993
sS'diag_B65'
p896
I199
sS'diag_M14'
p897
I991
sS'diag_B67'
p898
I201
sS'diag_B68'
p899
I202
sS'diag_B69'
p900
I203
sS'diag_M18'
p901
I995
sS'diag_M19'
p902
I996
sS'diag_F68'
p903
I531
sS'diag_F69'
p904
I532
sS'diag_F64'
p905
I528
sS'diag_F60'
p906
I524
sS'diag_F61'
p907
I525
sS'diag_F63'
p908
I527
sS'diag_D04'
p909
I325
sS'diag_D05'
p910
I326
sS'diag_D06'
p911
I327
sS'diag_D07'
p912
I328
sS'diag_D00'
p913
I321
sS'diag_D01'
p914
I322
sS'diag_D02'
p915
I323
sS'diag_D03'
p916
I324
sS'diag_D09'
p917
I329
sS'diag_L66'
p918
I950
sS'diag_L67'
p919
I951
sS'diag_L65'
p920
I949
sS'diag_L63'
p921
I947
sS'diag_L60'
p922
I945
sS'diag_L68'
p923
I952
sS'diag_Z48'
p924
I2067
sS'diag_Z49'
p925
I2068
sS'diag_Z46'
p926
I2065
sS'diag_Z47'
p927
I2066
sS'diag_Z44'
p928
I2063
sS'diag_Z45'
p929
I2064
sS'diag_Z42'
p930
I2061
sS'diag_Z43'
p931
I2062
sS'diag_Z40'
p932
I2059
sS'diag_Z41'
p933
I2060
sS'diag_C18'
p934
I250
sS'diag_C19'
p935
I251
sS'diag_N48'
p936
I1102
sS'diag_N49'
p937
I1103
sS'diag_C10'
p938
I242
sS'diag_C11'
p939
I243
sS'diag_C12'
p940
I244
sS'diag_C13'
p941
I245
sS'diag_C14'
p942
I246
sS'diag_C15'
p943
I247
sS'diag_C16'
p944
I248
sS'diag_C17'
p945
I249
sS'diag_D35'
p946
I355
sS'diag_D34'
p947
I354
sS'diag_G82'
p948
I610
sS'diag_O85'
p949
I1201
sS'diag_S44'
p950
I1496
sS'diag_D32'
p951
I352
sS'diag_H80'
p952
I683
sS'diag_H81'
p953
I684
sS'diag_H82'
p954
I685
sS'diag_H83'
p955
I686
sS'dpt_38'
p956
I2151
sS'dpt_39'
p957
I2152
sS'dpt_34'
p958
I2147
sS'dpt_35'
p959
I2148
sS'dpt_36'
p960
I2149
sS'dpt_37'
p961
I2150
sS'dpt_30'
p962
I2143
sS'dpt_31'
p963
I2144
sS'dpt_32'
p964
I2145
sS'dpt_33'
p965
I2146
sS'type_um_03B'
p966
I2242
sS'diag_J47'
p967
I807
sS'diag_J44'
p968
I804
sS'diag_J45'
p969
I805
sS'diag_J42'
p970
I802
sS'diag_J43'
p971
I803
sS'diag_J40'
p972
I800
sS'diag_J41'
p973
I801
sS'diag_S48'
p974
I1500
sS'diag_P60'
p975
I1254
sS'diag_P61'
p976
I1255
sS'diag_R60'
p977
I1416
sS'diag_R61'
p978
I1417
sS'diag_R62'
p979
I1418
sS'diag_R63'
p980
I1419
sS'diag_R64'
p981
I1420
sS'diag_R65'
p982
I1421
sS'diag_R68'
p983
I1422
sS'type_um_14B'
p984
I2254
sS'type_um_14A'
p985
I2253
sS'diag_T04'
p986
I1556
sS'diag_T06'
p987
I1558
sS'type_um_06'
p988
I2245
sS'diag_T09'
p989
I1561
sS'diag_M00'
p990
I978
sS'diag_M03'
p991
I981
sS'type_um_05'
p992
I2244
sS'diag_S19'
p993
I1471
sS'diag_S10'
p994
I1462
sS'diag_S11'
p995
I1463
sS'diag_S12'
p996
I1464
sS'diag_S13'
p997
I1465
sS'diag_S14'
p998
I1466
sS'diag_S15'
p999
I1467
sS'diag_S16'
p1000
I1468
sS'diag_S17'
p1001
I1469
sS'diag_P80'
p1002
I1264
sS'diag_P81'
p1003
I1265
sS'diag_P83'
p1004
I1266
sS'type_um_03A'
p1005
I2241
sS'diag_M05'
p1006
I982
sS'diag_M07'
p1007
I984
sS'diag_M06'
p1008
I983
sS'diag_M01'
p1009
I979
sS'diag_B76'
p1010
I210
sS'type_um_04'
p1011
I2243
sS'diag_M02'
p1012
I980
sS'type_um_08'
p1013
I2248
sS'diag_B78'
p1014
I212
sS'diag_M09'
p1015
I986
sS'diag_M08'
p1016
I985
sS'diag_F79'
p1017
I538
sS'diag_F78'
p1018
I537
sS'diag_B45'
p1019
I182
sS'diag_F73'
p1020
I536
sS'diag_F72'
p1021
I535
sS'diag_F71'
p1022
I534
sS'diag_F70'
p1023
I533
sS'type_um_73'
p1024
I2285
sS'type_um_72'
p1025
I2284
sS'diag_D17'
p1026
I337
sS'diag_D16'
p1027
I336
sS'diag_D15'
p1028
I335
sS'diag_D14'
p1029
I334
sS'diag_D13'
p1030
I333
sS'diag_D12'
p1031
I332
sS'diag_D11'
p1032
I331
sS'diag_D10'
p1033
I330
sS'diag_L71'
p1034
I954
sS'diag_L70'
p1035
I953
sS'diag_L73'
p1036
I956
sS'diag_L72'
p1037
I955
sS'diag_L75'
p1038
I958
sS'diag_D19'
p1039
I339
sS'diag_D18'
p1040
I338
sS'diag_E43'
p1041
I436
sS'diag_Z51'
p1042
I2070
sS'diag_Z50'
p1043
I2069
sS'diag_Z53'
p1044
I2072
sS'diag_Z52'
p1045
I2071
sS'diag_Z54'
p1046
I2073
sS'diag_Z56'
p1047
I2075
sS'diag_Z59'
p1048
I2078
sS'diag_Z58'
p1049
I2077
sS'diag_C09'
p1050
I241
sS'diag_C08'
p1051
I240
sS'diag_C03'
p1052
I235
sS'diag_C02'
p1053
I234
sS'diag_C01'
p1054
I233
sS'diag_C00'
p1055
I232
sS'diag_N51'
p1056
I1105
sS'diag_N50'
p1057
I1104
sS'diag_C05'
p1058
I237
sS'diag_C04'
p1059
I236
sS'dpt_2B'
p1060
I2142
sS'dpt_2A'
p1061
I2141
sS'diag_K75'
p1062
I892
sS'diag_H44'
p1063
I654
sS'diag_H45'
p1064
I655
sS'diag_H93'
p1065
I690
sS'diag_H92'
p1066
I689
sS'dpt_29'
p1067
I2140
sS'dpt_28'
p1068
I2139
sS'diag_H95'
p1069
I692
sS'dpt_23'
p1070
I2134
sS'dpt_22'
p1071
I2133
sS'dpt_21'
p1072
I2132
sS'dpt_20'
p1073
I2131
sS'dpt_27'
p1074
I2138
sS'dpt_26'
p1075
I2137
sS'dpt_25'
p1076
I2136
sS'dpt_24'
p1077
I2135
sS'diag_P75'
p1078
I1260
sS'diag_P74'
p1079
I1259
sS'diag_P77'
p1080
I1262
sS'diag_P76'
p1081
I1261
sS'diag_P71'
p1082
I1257
sS'diag_P70'
p1083
I1256
sS'diag_P72'
p1084
I1258
sS'diag_H48'
p1085
I658
sS'diag_P78'
p1086
I1263
sS'diag_H49'
p1087
I659
sS'diag_R73'
p1088
I1427
sS'diag_R72'
p1089
I1426
sS'diag_R71'
p1090
I1425
sS'diag_R70'
p1091
I1424
sS'diag_R77'
p1092
I1431
sS'diag_R76'
p1093
I1430
sS'diag_R74'
p1094
I1428
sS'diag_R79'
p1095
I1433
sS'diag_R78'
p1096
I1432
sS'diag_T17'
p1097
I1569
sS'diag_T16'
p1098
I1568
sS'diag_T15'
p1099
I1567
sS'diag_T13'
p1100
I1565
sS'diag_T11'
p1101
I1563
sS'diag_T19'
p1102
I1571
sS'diag_T18'
p1103
I1570
sS'type_um_01A'
p1104
I2237
sS'sex'
p1105
I2213
sS'diag_S09'
p1106
I1461
sS'diag_S08'
p1107
I1460
sS'diag_S03'
p1108
I1455
sS'diag_S02'
p1109
I1454
sS'diag_S01'
p1110
I1453
sS'diag_S00'
p1111
I1452
sS'diag_S06'
p1112
I1458
sS'diag_S05'
p1113
I1457
sS'diag_S04'
p1114
I1456
sS'diag_P92'
p1115
I1269
sS'diag_P91'
p1116
I1268
sS'diag_P90'
p1117
I1267
sS'diag_P96'
p1118
I1273
sS'diag_P94'
p1119
I1271
sS'age_10'
p1120
I1
sS'age_15'
p1121
I2
sS'diag_K29'
p1122
I857
sS'diag_G94'
p1123
I616
sS'diag_G95'
p1124
I617
sS'diag_G96'
p1125
I618
sS'diag_G97'
p1126
I619
sS'diag_G90'
p1127
I612
sS'diag_G91'
p1128
I613
sS'diag_G92'
p1129
I614
sS'type_um_16'
p1130
I2255
sS'type_um_19'
p1131
I2258
sS'diag_C07'
p1132
I239
sS'diag_G98'
p1133
I620
sS'diag_G99'
p1134
I621
sS'diag_B48'
p1135
I185
sS'diag_C06'
p1136
I238
sS'diag_F42'
p1137
I512
sS'diag_F43'
p1138
I513
sS'diag_F40'
p1139
I510
sS'diag_F41'
p1140
I511
sS'diag_F44'
p1141
I514
sS'diag_F45'
p1142
I515
sS'diag_F48'
p1143
I516
sS'diag_L08'
p1144
I912
sS'diag_L04'
p1145
I910
sS'diag_L05'
p1146
I911
sS'diag_L00'
p1147
I906
sS'diag_L01'
p1148
I907
sS'diag_L02'
p1149
I908
sS'diag_L03'
p1150
I909
sS'diag_Z26'
p1151
I2045
sS'diag_Z27'
p1152
I2046
sS'diag_Z20'
p1153
I2039
sS'diag_Z21'
p1154
I2040
sS'diag_Z22'
p1155
I2041
sS'diag_Z23'
p1156
I2042
sS'diag_Z29'
p1157
I2048
sS'diag_C38'
p1158
I265
sS'diag_C39'
p1159
I266
sS'diag_C37'
p1160
I264
sS'diag_C34'
p1161
I263
sS'diag_C32'
p1162
I261
sS'diag_C33'
p1163
I262
sS'diag_C30'
p1164
I259
sS'diag_C31'
p1165
I260
sS'diag_K10'
p1166
I844
sS'diag_K11'
p1167
I845
sS'diag_K12'
p1168
I846
sS'diag_K13'
p1169
I847
sS'diag_K14'
p1170
I848
sS'diag_D28'
p1171
I348
sS'diag_D29'
p1172
I349
sS'diag_O98'
p1173
I1213
sS'diag_O99'
p1174
I1214
sS'diag_D22'
p1175
I342
sS'diag_D23'
p1176
I343
sS'diag_D20'
p1177
I340
sS'diag_D21'
p1178
I341
sS'diag_O90'
p1179
I1206
sS'diag_O91'
p1180
I1207
sS'diag_O92'
p1181
I1208
sS'diag_D25'
p1182
I345
sS'diag_I20'
p1183
I706
sS'diag_J20'
p1184
I787
sS'diag_J21'
p1185
I788
sS'diag_R46'
p1186
I1402
sS'diag_R47'
p1187
I1403
sS'diag_R44'
p1188
I1400
sS'diag_R45'
p1189
I1401
sS'diag_R42'
p1190
I1398
sS'diag_R43'
p1191
I1399
sS'diag_R40'
p1192
I1396
sS'diag_R41'
p1193
I1397
sS'diag_R48'
p1194
I1404
sS'diag_R49'
p1195
I1405
sS'diag_I38'
p1196
I723
sS'diag_I39'
p1197
I724
sS'diag_I30'
p1198
I715
sS'diag_I31'
p1199
I716
sS'diag_I32'
p1200
I717
sS'diag_I33'
p1201
I718
sS'diag_I34'
p1202
I719
sS'diag_I35'
p1203
I720
sS'diag_I36'
p1204
I721
sS'diag_I37'
p1205
I722
sS'cmd_18'
p1206
I33
sS'cmd_19'
p1207
I34
sS'cmd_12'
p1208
I27
sS'cmd_13'
p1209
I28
sS'cmd_10'
p1210
I25
sS'cmd_11'
p1211
I26
sS'cmd_16'
p1212
I31
sS'cmd_17'
p1213
I32
sS'cmd_14'
p1214
I29
sS'cmd_15'
p1215
I30
sS'diag_T28'
p1216
I1580
sS'diag_T29'
p1217
I1581
sS'diag_T22'
p1218
I1574
sS'diag_T23'
p1219
I1575
sS'diag_T20'
p1220
I1572
sS'diag_T21'
p1221
I1573
sS'diag_T26'
p1222
I1578
sS'diag_T27'
p1223
I1579
sS'diag_T24'
p1224
I1576
sS'diag_T25'
p1225
I1577
sS'diag_K26'
p1226
I854
sS'diag_S38'
p1227
I1490
sS'diag_S39'
p1228
I1491
sS'diag_S36'
p1229
I1488
sS'diag_S37'
p1230
I1489
sS'diag_S34'
p1231
I1486
sS'diag_S35'
p1232
I1487
sS'diag_S32'
p1233
I1484
sS'diag_S33'
p1234
I1485
sS'diag_S30'
p1235
I1482
sS'diag_S31'
p1236
I1483
sS'diag_H91'
p1237
I688
sS'diag_H90'
p1238
I687
sS'diag_I52'
p1239
I737
sS'diag_G54'
p1240
I593
sS'diag_N22'
p1241
I1078
sS'diag_N23'
p1242
I1079
sS'age_25'
p1243
I4
sS'age_20'
p1244
I3
sS'diag_M23'
p1245
I1000
sS'diag_M48'
p1246
I1017
sS'type_um_26'
p1247
I2263
sS'type_um_27'
p1248
I2264
sS'type_um_20'
p1249
I2259
sS'type_um_21'
p1250
I2260
sS'type_um_22'
p1251
I2261
sS'type_um_23'
p1252
I2262
sS'type_um_28'
p1253
I2265
sS'type_um_29'
p1254
I2266
sS'diag_F55'
p1255
I522
sS'diag_F54'
p1256
I521
sS'diag_F51'
p1257
I518
sS'diag_F50'
p1258
I517
sS'diag_F53'
p1259
I520
sS'diag_F59'
p1260
I523
sS'diag_L14'
p1261
I917
sS'diag_L13'
p1262
I916
sS'diag_L12'
p1263
I915
sS'diag_L10'
p1264
I913
sS'dpt_50'
p1265
I2163
sS'diag_B59'
p1266
I196
sS'diag_Z36'
p1267
I2055
sS'diag_Z35'
p1268
I2054
sS'diag_Z34'
p1269
I2053
sS'diag_Z31'
p1270
I2050
sS'diag_Z30'
p1271
I2049
sS'diag_B51'
p1272
I188
sS'diag_B50'
p1273
I187
sS'diag_B53'
p1274
I190
sS'diag_B52'
p1275
I189
sS'diag_B55'
p1276
I192
sS'diag_B54'
p1277
I191
sS'diag_Z39'
p1278
I2058
sS'diag_Z38'
p1279
I2057
sS'diag_C21'
p1280
I253
sS'diag_C20'
p1281
I252
sS'diag_C23'
p1282
I255
sS'diag_C22'
p1283
I254
sS'diag_C25'
p1284
I257
sS'diag_C24'
p1285
I256
sS'diag_C26'
p1286
I258
sS'diag_K03'
p1287
I837
sS'diag_K02'
p1288
I836
sS'diag_K01'
p1289
I835
sS'diag_K00'
p1290
I834
sS'diag_K07'
p1291
I841
sS'diag_K06'
p1292
I840
sS'diag_K05'
p1293
I839
sS'diag_K04'
p1294
I838
sS'diag_K09'
p1295
I843
sS'diag_K08'
p1296
I842
sS'diag_B02'
p1297
I148
sS'diag_B00'
p1298
I146
sS'diag_B01'
p1299
I147
sS'diag_D39'
p1300
I359
sS'diag_D38'
p1301
I358
sS'diag_O89'
p1302
I1205
sS'diag_O88'
p1303
I1204
sS'diag_O87'
p1304
I1203
sS'diag_O86'
p1305
I1202
sS'diag_D37'
p1306
I357
sS'diag_D36'
p1307
I356
sS'diag_D31'
p1308
I351
sS'diag_D30'
p1309
I350
sS'diag_D33'
p1310
I353
sS'diag_O80'
p1311
I1196
sS'diag_B05'
p1312
I151
sS'diag_J37'
p1313
I797
sS'diag_J36'
p1314
I796
sS'diag_J35'
p1315
I795
sS'diag_J34'
p1316
I794
sS'diag_J33'
p1317
I793
sS'diag_J32'
p1318
I792
sS'diag_J31'
p1319
I791
sS'diag_J30'
p1320
I790
sS'diag_J39'
p1321
I799
sS'diag_J38'
p1322
I798
sS'diag_R59'
p1323
I1415
sS'diag_R58'
p1324
I1414
sS'diag_D70'
p1325
I388
sS'diag_R51'
p1326
I1407
sS'diag_R50'
p1327
I1406
sS'diag_R53'
p1328
I1409
sS'diag_R52'
p1329
I1408
sS'diag_R55'
p1330
I1411
sS'diag_R54'
p1331
I1410
sS'diag_R57'
p1332
I1413
sS'diag_R56'
p1333
I1412
sS'diag_J96'
p1334
I831
sS'diag_J91'
p1335
I826
sS'diag_J90'
p1336
I825
sS'diag_I28'
p1337
I714
sS'diag_J93'
p1338
I828
sS'diag_I23'
p1339
I709
sS'diag_I22'
p1340
I708
sS'diag_I21'
p1341
I707
sS'diag_D76'
p1342
I394
sS'diag_I27'
p1343
I713
sS'diag_I26'
p1344
I712
sS'diag_I25'
p1345
I711
sS'diag_I24'
p1346
I710
sS'cmd_09'
p1347
I24
sS'cmd_08'
p1348
I23
sS'diag_E71'
p1349
I458
sS'cmd_01'
p1350
I16
sS'cmd_03'
p1351
I18
sS'cmd_02'
p1352
I17
sS'cmd_05'
p1353
I20
sS'cmd_04'
p1354
I19
sS'cmd_07'
p1355
I22
sS'cmd_06'
p1356
I21
sS'diag_E73'
p1357
I460
sS'diag_T39'
p1358
I1591
sS'diag_T38'
p1359
I1590
sS'diag_T35'
p1360
I1587
sS'diag_T34'
p1361
I1586
sS'diag_T37'
p1362
I1589
sS'diag_T36'
p1363
I1588
sS'diag_T31'
p1364
I1583
sS'diag_T30'
p1365
I1582
sS'diag_T33'
p1366
I1585
sS'diag_T32'
p1367
I1584
sS'diag_E76'
p1368
I463
sS'diag_A81'
p1369
I128
sS'dpt_58'
p1370
I2171
sS'diag_H26'
p1371
I641
sS'dpt_57'
p1372
I2170
sS'diag_A85'
p1373
I132
sS'diag_H25'
p1374
I640
sS'diag_A87'
p1375
I134
sS'dpt_52'
p1376
I2165
sS'diag_A86'
p1377
I133
sS'private'
p1378
I2212
sS'diag_S21'
p1379
I1473
sS'diag_S20'
p1380
I1472
sS'diag_S23'
p1381
I1475
sS'diag_S22'
p1382
I1474
sS'diag_S25'
p1383
I1477
sS'diag_S24'
p1384
I1476
sS'diag_S27'
p1385
I1479
sS'diag_S26'
p1386
I1478
sS'diag_S29'
p1387
I1481
sS'dpt_51'
p1388
I2164
sS'diag_D26'
p1389
I346
sS'age_30'
p1390
I5
sS'age_35'
p1391
I6
sS'diag_Z73'
p1392
I2088
sS'diag_Z72'
p1393
I2087
sS'diag_Z71'
p1394
I2086
sS'diag_Z70'
p1395
I2085
sS'diag_Z75'
p1396
I2090
sS'diag_L22'
p1397
I920
sS'diag_L23'
p1398
I921
sS'diag_A32'
p1399
I86
sS'diag_L21'
p1400
I919
sS'diag_L26'
p1401
I924
sS'diag_L27'
p1402
I925
sS'diag_L24'
p1403
I922
sS'diag_L25'
p1404
I923
sS'diag_A38'
p1405
I92
sS'diag_A39'
p1406
I93
sS'diag_F84'
p1407
I543
sS'diag_L29'
p1408
I927
sS'diag_F82'
p1409
I541
sS'diag_F83'
p1410
I542
sS'diag_F80'
p1411
I539
sS'diag_F81'
p1412
I540
sS'diag_Z08'
p1413
I2033
sS'diag_Z09'
p1414
I2034
sS'diag_Z02'
p1415
I2030
sS'diag_Z03'
p1416
I2031
sS'diag_Z00'
p1417
I2028
sS'diag_Z01'
p1418
I2029
sS'diag_Z04'
p1419
I2032
sS'diag_B24'
p1420
I165
sS'diag_B25'
p1421
I166
sS'diag_B26'
p1422
I167
sS'type_um_30'
p1423
I2267
sS'type_um_37'
p1424
I2271
sS'type_um_36'
p1425
I2270
sS'diag_B22'
p1426
I163
sS'diag_B23'
p1427
I164
sS'diag_C54'
p1428
I280
sS'diag_C55'
p1429
I281
sS'diag_C56'
p1430
I282
sS'diag_C57'
p1431
I283
sS'diag_C50'
p1432
I276
sS'diag_N83'
p1433
I1122
sS'diag_C52'
p1434
I278
sS'diag_C53'
p1435
I279
sS'diag_C58'
p1436
I284
sS'diag_N88'
p1437
I1127
sS'diag_N89'
p1438
I1128
sS'diag_K36'
p1439
I861
sS'diag_K37'
p1440
I862
sS'diag_K35'
p1441
I860
sS'diag_K30'
p1442
I858
sS'diag_K31'
p1443
I859
sS'diag_K38'
p1444
I863
sS'diag_J09'
p1445
I777
sS'diag_J02'
p1446
I772
sS'diag_J03'
p1447
I773
sS'diag_J00'
p1448
I770
sS'diag_J01'
p1449
I771
sS'diag_J06'
p1450
I776
sS'diag_J04'
p1451
I774
sS'diag_J05'
p1452
I775
sS'type_um_07B'
p1453
I2247
sS'type_um_07A'
p1454
I2246
sS'diag_R29'
p1455
I1387
sS'diag_R25'
p1456
I1384
sS'diag_R26'
p1457
I1385
sS'diag_R27'
p1458
I1386
sS'diag_R20'
p1459
I1380
sS'diag_R21'
p1460
I1381
sS'diag_R22'
p1461
I1382
sS'diag_R23'
p1462
I1383
sS'diag_I15'
p1463
I705
sS'diag_I12'
p1464
I703
sS'diag_I13'
p1465
I704
sS'diag_I10'
p1466
I701
sS'diag_I11'
p1467
I702
sS'diag_Q30'
p1468
I1300
sS'diag_Q31'
p1469
I1301
sS'diag_Q32'
p1470
I1302
sS'diag_Q33'
p1471
I1303
sS'diag_Q34'
p1472
I1304
sS'diag_Q35'
p1473
I1305
sS'diag_Q36'
p1474
I1306
sS'diag_Q37'
p1475
I1307
sS'diag_Q38'
p1476
I1308
sS'diag_Q39'
p1477
I1309
sS'dpt_98'
p1478
I2210
sS'dpt_92'
p1479
I2205
sS'dpt_93'
p1480
I2206
sS'dpt_90'
p1481
I2203
sS'dpt_91'
p1482
I2204
sS'dpt_97'
p1483
I2209
sS'dpt_94'
p1484
I2207
sS'dpt_95'
p1485
I2208
sS'diag_S54'
p1486
I1506
sS'diag_S55'
p1487
I1507
sS'diag_S56'
p1488
I1508
sS'diag_S57'
p1489
I1509
sS'diag_S50'
p1490
I1502
sS'diag_S51'
p1491
I1503
sS'diag_S52'
p1492
I1504
sS'diag_S53'
p1493
I1505
sS'diag_S59'
p1494
I1511
sS'diag_E72'
p1495
I459
sS'diag_E74'
p1496
I461
sS'diag_M49'
p1497
I1018
sS'diag_E75'
p1498
I462
sS'diag_A31'
p1499
I85
sS'diag_L20'
p1500
I918
sS'dpt_08'
p1501
I2119
sS'diag_F88'
p1502
I544
sS'diag_A37'
p1503
I91
sS'diag_M53'
p1504
I1021
sS'diag_L28'
p1505
I926
sS'diag_F91'
p1506
I547
sS'diag_F90'
p1507
I546
sS'diag_F93'
p1508
I549
sS'diag_F92'
p1509
I548
sS'diag_A27'
p1510
I82
sS'diag_F94'
p1511
I550
sS'diag_F98'
p1512
I552
sS'diag_A28'
p1513
I83
sS'stay_length_30'
p1514
I2222
sS'diag_E29'
p1515
I427
sS'diag_E28'
p1516
I426
sS'diag_Z11'
p1517
I2036
sS'diag_Z13'
p1518
I2038
sS'diag_Z12'
p1519
I2037
sS'diag_B39'
p1520
I176
sS'diag_B37'
p1521
I174
sS'diag_B36'
p1522
I173
sS'diag_B35'
p1523
I172
sS'diag_B34'
p1524
I171
sS'diag_B33'
p1525
I170
sS'type_um_43'
p1526
I2275
sS'type_um_40'
p1527
I2272
sS'diag_B30'
p1528
I169
sS'diag_C47'
p1529
I273
sS'diag_C46'
p1530
I272
sS'diag_C45'
p1531
I271
sS'diag_C44'
p1532
I270
sS'diag_C43'
p1533
I269
sS'diag_C41'
p1534
I268
sS'diag_C40'
p1535
I267
sS'diag_K21'
p1536
I850
sS'diag_K20'
p1537
I849
sS'diag_K23'
p1538
I852
sS'diag_K22'
p1539
I851
sS'diag_K25'
p1540
I853
sS'diag_K27'
p1541
I855
sS'diag_C48'
p1542
I274
sS'diag_O48'
p1543
I1179
sS'diag_J18'
p1544
I786
sS'diag_O43'
p1545
I1174
sS'diag_O42'
p1546
I1173
sS'diag_O41'
p1547
I1172
sS'diag_O40'
p1548
I1171
sS'diag_O47'
p1549
I1178
sS'diag_O46'
p1550
I1177
sS'diag_O45'
p1551
I1176
sS'diag_O44'
p1552
I1175
sS'diag_N99'
p1553
I1138
sS'diag_N98'
p1554
I1137
sS'diag_N91'
p1555
I1130
sS'diag_N90'
p1556
I1129
sS'diag_N93'
p1557
I1132
sS'diag_N92'
p1558
I1131
sS'diag_N95'
p1559
I1134
sS'diag_N94'
p1560
I1133
sS'diag_N97'
p1561
I1136
sS'diag_N96'
p1562
I1135
sS'diag_R39'
p1563
I1395
sS'diag_R35'
p1564
I1393
sS'diag_R34'
p1565
I1392
sS'diag_R33'
p1566
I1391
sS'diag_R32'
p1567
I1390
sS'diag_R31'
p1568
I1389
sS'diag_R30'
p1569
I1388
sS'diag_I01'
p1570
I694
sS'diag_I00'
p1571
I693
sS'cmd_21'
p1572
I36
sS'cmd_20'
p1573
I35
sS'diag_I05'
p1574
I696
sS'cmd_26'
p1575
I41
sS'cmd_25'
p1576
I40
sS'diag_F32'
p1577
I505
sS'diag_I09'
p1578
I700
sS'diag_I08'
p1579
I699
sS'diag_F30'
p1580
I503
sS'diag_F34'
p1581
I507
sS'diag_Q23'
p1582
I1294
sS'diag_Q22'
p1583
I1293
sS'diag_Q21'
p1584
I1292
sS'diag_Q20'
p1585
I1291
sS'diag_Q27'
p1586
I1298
sS'diag_Q26'
p1587
I1297
sS'diag_Q25'
p1588
I1296
sS'diag_Q24'
p1589
I1295
sS'diag_Q28'
p1590
I1299
sS'diag_B27'
p1591
I168
sS'diag_B20'
p1592
I161
sS'diag_B21'
p1593
I162
sS'dpt_89'
p1594
I2202
sS'dpt_88'
p1595
I2201
sS'diag_Q15'
p1596
I1287
sS'dpt_81'
p1597
I2194
sS'dpt_80'
p1598
I2193
sS'dpt_83'
p1599
I2196
sS'dpt_82'
p1600
I2195
sS'dpt_85'
p1601
I2198
sS'dpt_84'
p1602
I2197
sS'dpt_87'
p1603
I2200
sS'dpt_86'
p1604
I2199
sS'diag_N86'
p1605
I1125
sS'diag_N87'
p1606
I1126
sS'diag_N84'
p1607
I1123
sS'diag_S47'
p1608
I1499
sS'diag_S46'
p1609
I1498
sS'diag_S45'
p1610
I1497
sS'diag_N85'
p1611
I1124
sS'diag_S43'
p1612
I1495
sS'diag_S42'
p1613
I1494
sS'diag_S41'
p1614
I1493
sS'diag_S40'
p1615
I1492
sS'diag_N82'
p1616
I1121
sS'diag_S49'
p1617
I1501
sS'diag_C51'
p1618
I277
sS'diag_N80'
p1619
I1119
sS'diag_N81'
p1620
I1120
sS'diag_O24'
p1621
I1159
sS'diag_O26'
p1622
I1161
sS'diag_O21'
p1623
I1156
sS'diag_O20'
p1624
I1155
sS'diag_O23'
p1625
I1158
sS'diag_A16'
p1626
I71
sS'diag_A17'
p1627
I72
sS'diag_A15'
p1628
I70
sS'stay_length_25'
p1629
I2220
sS'stay_length_20'
p1630
I2219
sS'diag_A18'
p1631
I73
sS'diag_A19'
p1632
I74
sS'diag_E90'
p1633
I475
sS'diag_G50'
p1634
I589
sS'diag_G51'
p1635
I590
sS'diag_G52'
p1636
I591
sS'diag_G53'
p1637
I592
sS'diag_B06'
p1638
I152
sS'diag_G55'
p1639
I594
sS'diag_G56'
p1640
I595
sS'diag_G57'
p1641
I596
sS'diag_G58'
p1642
I597
sS'diag_G59'
p1643
I598
sS'diag_B08'
p1644
I154
sS'diag_B09'
p1645
I155
sS'type_um_51'
p1646
I2277
sS'type_um_50'
p1647
I2276
sS'type_um_53'
p1648
I2279
sS'type_um_52'
p1649
I2278
sS'diag_E78'
p1650
I465
sS'diag_E79'
p1651
I466
sS'diag_K58'
p1652
I877
sS'diag_K59'
p1653
I878
sS'diag_E70'
p1654
I457
sS'diag_K55'
p1655
I874
sS'diag_K56'
p1656
I875
sS'diag_K57'
p1657
I876
sS'diag_K50'
p1658
I871
sS'diag_K51'
p1659
I872
sS'diag_K52'
p1660
I873
sS'diag_E77'
p1661
I464
sS'diag_M99'
p1662
I1056
sS'diag_M92'
p1663
I1051
sS'diag_M93'
p1664
I1052
sS'diag_M90'
p1665
I1049
sS'diag_M91'
p1666
I1050
sS'diag_M96'
p1667
I1055
sS'diag_M94'
p1668
I1053
sS'diag_M95'
p1669
I1054
sS'diag_T75'
p1670
I1626
sS'diag_O74'
p1671
I1194
sS'diag_O75'
p1672
I1195
sS'diag_O72'
p1673
I1192
sS'diag_O73'
p1674
I1193
sS'diag_O70'
p1675
I1190
sS'diag_O71'
p1676
I1191
sS'diag_B46'
p1677
I183
sS'diag_C78'
p1678
I303
sS'diag_C79'
p1679
I304
sS'diag_C72'
p1680
I297
sS'diag_C73'
p1681
I298
sS'diag_C70'
p1682
I295
sS'diag_C71'
p1683
I296
sS'diag_C76'
p1684
I301
sS'diag_C77'
p1685
I302
sS'diag_C74'
p1686
I299
sS'diag_C75'
p1687
I300
sS'diag_R02'
p1688
I1363
sS'diag_R03'
p1689
I1364
sS'diag_R00'
p1690
I1361
sS'diag_R01'
p1691
I1362
sS'diag_R06'
p1692
I1367
sS'diag_R07'
p1693
I1368
sS'diag_R04'
p1694
I1365
sS'diag_R05'
p1695
I1366
sS'diag_R09'
p1696
I1369
sS'diag_I74'
p1697
I752
sS'diag_I77'
p1698
I753
sS'diag_I70'
p1699
I748
sS'diag_I71'
p1700
I749
sS'diag_I72'
p1701
I750
sS'diag_I73'
p1702
I751
sS'diag_I78'
p1703
I754
sS'diag_I79'
p1704
I755
sS'type_um_11'
p1705
I2249
sS'diag_B47'
p1706
I184
sS'diag_H68'
p1707
I675
sS'diag_B44'
p1708
I181
sS'diag_Q16'
p1709
I1288
sS'diag_Q17'
p1710
I1289
sS'diag_Q14'
p1711
I1286
sS'type_um_12'
p1712
I2250
sS'diag_Q12'
p1713
I1284
sS'diag_Q13'
p1714
I1285
sS'diag_Q10'
p1715
I1282
sS'diag_Q11'
p1716
I1283
sS'diag_Q18'
p1717
I1290
sS'type_um_17'
p1718
I2256
sS'diag_H00'
p1719
I622
sS'diag_H01'
p1720
I623
sS'diag_H02'
p1721
I624
sS'diag_H03'
p1722
I625
sS'diag_H04'
p1723
I626
sS'diag_H05'
p1724
I627
sS'diag_H06'
p1725
I628
sS'type_um_18'
p1726
I2257
sS'diag_S78'
p1727
I1530
sS'diag_S79'
p1728
I1531
sS'diag_S72'
p1729
I1524
sS'diag_S73'
p1730
I1525
sS'diag_S70'
p1731
I1522
sS'diag_S71'
p1732
I1523
sS'diag_S76'
p1733
I1528
sS'diag_S77'
p1734
I1529
sS'diag_S74'
p1735
I1526
sS'diag_S75'
p1736
I1527
s.