(dp0
S'type_ghm_Z'
p1
I2
sS'complexity_ghm_4'
p2
I3
sS'complexity_ghm_2'
p3
I4
sS'complexity_ghm_3'
p4
I5
sS'complexity_ghm_1'
p5
I6
sS'dpt_58'
p6
I7
sS'dpt_59'
p7
I8
sS'dpt_56'
p8
I9
sS'dpt_57'
p9
I10
sS'dpt_54'
p10
I11
sS'dpt_55'
p11
I12
sS'dpt_52'
p12
I13
sS'dpt_53'
p13
I14
sS'dpt_50'
p14
I15
sS'dpt_51'
p15
I16
sS'type_um_30'
p16
I17
sS'type_um_37'
p17
I18
sS'type_um_36'
p18
I19
sS'type_um_35'
p19
I20
sS'type_um_34'
p20
I21
sS'emergency'
p21
I22
sS'complexity_ghm_J'
p22
I23
sS'dpt_49'
p23
I24
sS'dpt_48'
p24
I25
sS'type_um_01A'
p25
I26
sS'dpt_45'
p26
I27
sS'dpt_44'
p27
I28
sS'dpt_47'
p28
I29
sS'dpt_46'
p29
I30
sS'dpt_41'
p30
I31
sS'dpt_40'
p31
I32
sS'dpt_43'
p32
I33
sS'dpt_42'
p33
I34
sS'complexity_ghm_Z'
p34
I35
sS'complexity_ghm_V'
p35
I36
sS'complexity_ghm_W'
p36
I37
sS'complexity_ghm_T'
p37
I38
sS'type_um_52'
p38
I39
sS'type_um_42'
p39
I40
sS'complexity_ghm_S'
p40
I41
sS'type_um_40'
p41
I42
sS'type_um_41'
p42
I43
sS'complexity_ghm_E'
p43
I44
sS'complexity_ghm_B'
p44
I45
sS'type_um_01B'
p45
I46
sS'sex'
p46
I47
sS'complexity_ghm_A'
p47
I48
sS'dpt_78'
p48
I49
sS'dpt_79'
p49
I50
sS'type_um_07B'
p50
I51
sS'type_um_05'
p51
I52
sS'type_um_07A'
p52
I53
sS'dpt_70'
p53
I54
sS'dpt_71'
p54
I55
sS'dpt_72'
p55
I56
sS'dpt_73'
p56
I57
sS'dpt_74'
p57
I58
sS'dpt_75'
p58
I59
sS'dpt_76'
p59
I60
sS'dpt_77'
p60
I61
sS'type_ghm_C'
p61
I62
sS'type_ghm_M'
p62
I63
sS'type_ghm_H'
p63
I64
sS'type_um_50'
p64
I65
sS'type_um_53'
p65
I66
sS'type_ghm_K'
p66
I67
sS'dpt_67'
p67
I68
sS'dpt_66'
p68
I69
sS'dpt_65'
p69
I70
sS'dpt_64'
p70
I71
sS'dpt_63'
p71
I72
sS'dpt_62'
p72
I73
sS'dpt_61'
p73
I74
sS'dpt_60'
p74
I75
sS'dpt_69'
p75
I76
sS'dpt_68'
p76
I77
sS'type_um_43'
p77
I78
sS'type_um_60'
p78
I79
sS'type_um_61'
p79
I80
sS'type_um_51'
p80
I81
sS'type_um_06'
p81
I82
sS'type_um_04'
p82
I83
sS'complexity_ghm_C'
p83
I84
sS'type_um_08'
p84
I85
sS'private'
p85
I86
sS'dpt_12'
p86
I87
sS'dpt_13'
p87
I88
sS'dpt_10'
p88
I89
sS'dpt_11'
p89
I90
sS'dpt_16'
p90
I91
sS'dpt_17'
p91
I92
sS'dpt_14'
p92
I93
sS'dpt_15'
p93
I94
sS'dpt_18'
p94
I95
sS'dpt_19'
p95
I96
sS'dpt_98'
p96
I97
sS'dpt_99'
p97
I98
sS'type_um_73'
p98
I99
sS'type_um_72'
p99
I100
sS'type_um_71'
p100
I101
sS'type_um_70'
p101
I102
sS'dpt_92'
p102
I103
sS'dpt_93'
p103
I104
sS'dpt_90'
p104
I105
sS'dpt_91'
p105
I106
sS'dpt_97'
p106
I107
sS'dpt_94'
p107
I108
sS'dpt_95'
p108
I109
sS'type_um_17'
p109
I110
sS'type_um_16'
p110
I111
sS'type_um_19'
p111
I112
sS'type_um_18'
p112
I113
sS'dpt_01'
p113
I114
sS'dpt_03'
p114
I115
sS'dpt_02'
p115
I116
sS'dpt_05'
p116
I117
sS'dpt_04'
p117
I118
sS'dpt_07'
p118
I119
sS'dpt_06'
p119
I120
sS'dpt_09'
p120
I121
sS'dpt_08'
p121
I122
sS'stay_length'
p122
I1
sS'dpt_89'
p123
I123
sS'dpt_88'
p124
I124
sS'dpt_81'
p125
I125
sS'dpt_80'
p126
I126
sS'dpt_83'
p127
I127
sS'dpt_82'
p128
I128
sS'dpt_85'
p129
I129
sS'dpt_84'
p130
I130
sS'dpt_87'
p131
I131
sS'dpt_86'
p132
I132
sS'type_um_26'
p133
I133
sS'type_um_27'
p134
I134
sS'type_um_20'
p135
I135
sS'type_um_21'
p136
I136
sS'type_um_22'
p137
I137
sS'type_um_23'
p138
I138
sS'type_um_28'
p139
I139
sS'type_um_29'
p140
I140
sS'type_um_13B'
p141
I141
sS'type_um_13A'
p142
I142
sS'dpt_38'
p143
I143
sS'dpt_39'
p144
I144
sS'dpt_34'
p145
I145
sS'dpt_35'
p146
I146
sS'dpt_36'
p147
I147
sS'dpt_37'
p148
I148
sS'dpt_30'
p149
I149
sS'dpt_31'
p150
I150
sS'dpt_32'
p151
I151
sS'dpt_33'
p152
I152
sS'type_um_03B'
p153
I153
sS'dpt_2B'
p154
I154
sS'dpt_2A'
p155
I155
sS'type_um_03A'
p156
I156
sS'type_um_88'
p157
I157
sS'dpt_29'
p158
I158
sS'dpt_28'
p159
I159
sS'type_um_02A'
p160
I160
sS'complexity_ghm_D'
p161
I161
sS'type_um_02B'
p162
I162
sS'dpt_23'
p163
I163
sS'dpt_22'
p164
I164
sS'dpt_21'
p165
I165
sS'dpt_20'
p166
I166
sS'dpt_27'
p167
I167
sS'dpt_26'
p168
I168
sS'dpt_25'
p169
I169
sS'dpt_24'
p170
I170
sS'type_um_14B'
p171
I171
sS'type_um_14A'
p172
I172
sS'age'
p173
I0
s.