(dp0
S'type_ghm_H'
p1
I0
sS'type_ghm_Z'
p2
I1
sS'complexity_ghm_4'
p3
I2
sS'complexity_ghm_2'
p4
I3
sS'complexity_ghm_3'
p5
I4
sS'complexity_ghm_1'
p6
I5
sS'dpt_58'
p7
I6
sS'dpt_59'
p8
I7
sS'dpt_56'
p9
I8
sS'dpt_57'
p10
I9
sS'dpt_54'
p11
I10
sS'dpt_55'
p12
I11
sS'this_emergency'
p13
I12
sS'dpt_53'
p14
I13
sS'dpt_50'
p15
I14
sS'dpt_51'
p16
I15
sS'age_60'
p17
I16
sS'stay_length_55'
p18
I17
sS'type_um_30'
p19
I18
sS'stay_length_50'
p20
I19
sS'age_65'
p21
I20
sS'type_um_35'
p22
I21
sS'type_um_34'
p23
I22
sS'stay_length_35'
p24
I23
sS'stay_length_30'
p25
I24
sS'cmd_90'
p26
I25
sS'complexity_ghm_J'
p27
I26
sS'age_75'
p28
I27
sS'dpt_49'
p29
I28
sS'dpt_48'
p30
I29
sS'age_70'
p31
I30
sS'dpt_45'
p32
I31
sS'dpt_44'
p33
I32
sS'dpt_47'
p34
I33
sS'dpt_46'
p35
I34
sS'dpt_41'
p36
I35
sS'dpt_40'
p37
I36
sS'dpt_43'
p38
I37
sS'dpt_42'
p39
I38
sS'cmd_18'
p40
I39
sS'cmd_19'
p41
I40
sS'complexity_ghm_Z'
p42
I41
sS'type_um_53'
p43
I42
sS'cmd_12'
p44
I43
sS'cmd_13'
p45
I44
sS'cmd_10'
p46
I45
sS'cmd_11'
p47
I46
sS'cmd_16'
p48
I47
sS'cmd_17'
p49
I48
sS'cmd_14'
p50
I49
sS'cmd_15'
p51
I50
sS'complexity_ghm_E'
p52
I51
sS'stay_length_25'
p53
I52
sS'complexity_ghm_B'
p54
I53
sS'type_um_01B'
p55
I54
sS'stay_length_20'
p56
I55
sS'complexity_ghm_V'
p57
I56
sS'sex'
p58
I57
sS'complexity_ghm_A'
p59
I58
sS'dpt_78'
p60
I59
sS'dpt_79'
p61
I60
sS'type_um_07B'
p62
I61
sS'type_um_05'
p63
I62
sS'type_um_07A'
p64
I63
sS'dpt_70'
p65
I64
sS'dpt_71'
p66
I65
sS'dpt_72'
p67
I66
sS'dpt_73'
p68
I67
sS'dpt_74'
p69
I68
sS'dpt_75'
p70
I69
sS'dpt_76'
p71
I70
sS'dpt_77'
p72
I71
sS'cmd_09'
p73
I72
sS'cmd_08'
p74
I73
sS'type_ghm_C'
p75
I74
sS'cmd_01'
p76
I75
sS'type_ghm_M'
p77
I76
sS'cmd_03'
p78
I77
sS'cmd_02'
p79
I78
sS'cmd_05'
p80
I79
sS'cmd_04'
p81
I80
sS'cmd_07'
p82
I81
sS'cmd_06'
p83
I82
sS'stay_length_10'
p84
I83
sS'stay_length_15'
p85
I84
sS'dpt_67'
p86
I85
sS'dpt_66'
p87
I86
sS'dpt_65'
p88
I87
sS'dpt_64'
p89
I88
sS'dpt_63'
p90
I89
sS'dpt_62'
p91
I90
sS'dpt_61'
p92
I91
sS'next_emergency'
p93
I92
sS'stay_length_4'
p94
I93
sS'stay_length_5'
p95
I94
sS'stay_length_2'
p96
I95
sS'stay_length_3'
p97
I96
sS'stay_length_0'
p98
I97
sS'stay_length_1'
p99
I98
sS'age_10'
p100
I99
sS'stay_length_40'
p101
I100
sS'age_15'
p102
I101
sS'dpt_22'
p103
I102
sS'type_um_42'
p104
I103
sS'complexity_ghm_S'
p105
I104
sS'type_um_60'
p106
I105
sS'type_um_61'
p107
I106
sS'stay_length_45'
p108
I107
sS'type_um_41'
p109
I108
sS'type_um_51'
p110
I109
sS'type_um_06'
p111
I110
sS'type_um_04'
p112
I111
sS'complexity_ghm_C'
p113
I112
sS'dpt_52'
p114
I113
sS'type_um_08'
p115
I114
sS'dpt_60'
p116
I115
sS'private'
p117
I116
sS'dpt_12'
p118
I117
sS'dpt_13'
p119
I118
sS'dpt_10'
p120
I119
sS'dpt_11'
p121
I120
sS'dpt_16'
p122
I121
sS'dpt_17'
p123
I122
sS'dpt_14'
p124
I123
sS'dpt_15'
p125
I124
sS'type_um_20'
p126
I125
sS'dpt_18'
p127
I126
sS'dpt_19'
p128
I127
sS'cmd_23'
p129
I128
sS'cmd_22'
p130
I129
sS'cmd_21'
p131
I130
sS'cmd_20'
p132
I131
sS'cmd_27'
p133
I132
sS'cmd_26'
p134
I133
sS'cmd_25'
p135
I134
sS'cmd_24'
p136
I135
sS'age_25'
p137
I136
sS'cmd_28'
p138
I137
sS'age_20'
p139
I138
sS'dpt_98'
p140
I139
sS'dpt_99'
p141
I140
sS'type_um_73'
p142
I141
sS'dpt_69'
p143
I142
sS'type_um_50'
p144
I143
sS'type_um_70'
p145
I144
sS'dpt_92'
p146
I145
sS'dpt_93'
p147
I146
sS'dpt_90'
p148
I147
sS'dpt_68'
p149
I148
sS'dpt_97'
p150
I149
sS'dpt_94'
p151
I150
sS'dpt_95'
p152
I151
sS'type_um_11'
p153
I152
sS'type_um_12'
p154
I153
sS'type_um_71'
p155
I154
sS'type_um_17'
p156
I155
sS'type_um_16'
p157
I156
sS'type_um_19'
p158
I157
sS'type_um_18'
p159
I158
sS'dpt_01'
p160
I159
sS'dpt_03'
p161
I160
sS'dpt_02'
p162
I161
sS'dpt_05'
p163
I162
sS'dpt_04'
p164
I163
sS'dpt_07'
p165
I164
sS'dpt_06'
p166
I165
sS'dpt_09'
p167
I166
sS'dpt_08'
p168
I167
sS'type_um_52'
p169
I168
sS'type_um_72'
p170
I169
sS'dpt_91'
p171
I170
sS'type_um_37'
p172
I171
sS'age_30'
p173
I172
sS'dpt_27'
p174
I173
sS'age_35'
p175
I174
sS'type_um_36'
p176
I175
sS'dpt_89'
p177
I176
sS'dpt_88'
p178
I177
sS'dpt_81'
p179
I178
sS'dpt_80'
p180
I179
sS'dpt_83'
p181
I180
sS'dpt_82'
p182
I181
sS'dpt_85'
p183
I182
sS'dpt_84'
p184
I183
sS'dpt_87'
p185
I184
sS'dpt_86'
p186
I185
sS'type_um_01A'
p187
I186
sS'stay_length_60'
p188
I187
sS'type_um_26'
p189
I188
sS'type_um_27'
p190
I189
sS'stay_length_65'
p191
I190
sS'type_um_21'
p192
I191
sS'type_um_22'
p193
I192
sS'type_um_23'
p194
I193
sS'type_um_28'
p195
I194
sS'type_um_29'
p196
I195
sS'type_um_43'
p197
I196
sS'type_um_13B'
p198
I197
sS'type_um_13A'
p199
I198
sS'dpt_38'
p200
I199
sS'dpt_39'
p201
I200
sS'complexity_ghm_W'
p202
I201
sS'dpt_34'
p203
I202
sS'dpt_35'
p204
I203
sS'dpt_36'
p205
I204
sS'dpt_37'
p206
I205
sS'dpt_30'
p207
I206
sS'dpt_31'
p208
I207
sS'dpt_32'
p209
I208
sS'dpt_33'
p210
I209
sS'type_um_03B'
p211
I210
sS'dpt_2B'
p212
I211
sS'dpt_2A'
p213
I212
sS'type_um_03A'
p214
I213
sS'type_ghm_K'
p215
I214
sS'type_um_40'
p216
I215
sS'complexity_ghm_T'
p217
I216
sS'age_45'
p218
I217
sS'age_40'
p219
I218
sS'type_um_88'
p220
I219
sS'dpt_29'
p221
I220
sS'dpt_28'
p222
I221
sS'type_um_02A'
p223
I222
sS'complexity_ghm_D'
p224
I223
sS'type_um_02B'
p225
I224
sS'dpt_23'
p226
I225
sS'age_0'
p227
I226
sS'dpt_21'
p228
I227
sS'dpt_20'
p229
I228
sS'age_5'
p230
I229
sS'dpt_26'
p231
I230
sS'dpt_25'
p232
I231
sS'dpt_24'
p233
I232
sS'type_um_14B'
p234
I233
sS'type_um_14A'
p235
I234
sS'age_55'
p236
I235
sS'age_50'
p237
I236
s.