(lp0
S'sex'
p1
aS'age'
p2
aS'emergency'
p3
aS'private'
p4
aS'stay_length'
p5
aS'dpt_01'
p6
aS'dpt_02'
p7
aS'dpt_03'
p8
aS'dpt_04'
p9
aS'dpt_05'
p10
aS'dpt_06'
p11
aS'dpt_07'
p12
aS'dpt_08'
p13
aS'dpt_09'
p14
aS'dpt_10'
p15
aS'dpt_11'
p16
aS'dpt_12'
p17
aS'dpt_13'
p18
aS'dpt_14'
p19
aS'dpt_15'
p20
aS'dpt_16'
p21
aS'dpt_17'
p22
aS'dpt_18'
p23
aS'dpt_19'
p24
aS'dpt_20'
p25
aS'dpt_21'
p26
aS'dpt_22'
p27
aS'dpt_23'
p28
aS'dpt_24'
p29
aS'dpt_25'
p30
aS'dpt_26'
p31
aS'dpt_27'
p32
aS'dpt_28'
p33
aS'dpt_29'
p34
aS'dpt_2A'
p35
aS'dpt_2B'
p36
aS'dpt_30'
p37
aS'dpt_31'
p38
aS'dpt_32'
p39
aS'dpt_33'
p40
aS'dpt_34'
p41
aS'dpt_35'
p42
aS'dpt_36'
p43
aS'dpt_37'
p44
aS'dpt_38'
p45
aS'dpt_39'
p46
aS'dpt_40'
p47
aS'dpt_41'
p48
aS'dpt_42'
p49
aS'dpt_43'
p50
aS'dpt_44'
p51
aS'dpt_45'
p52
aS'dpt_46'
p53
aS'dpt_47'
p54
aS'dpt_48'
p55
aS'dpt_49'
p56
aS'dpt_50'
p57
aS'dpt_51'
p58
aS'dpt_52'
p59
aS'dpt_53'
p60
aS'dpt_54'
p61
aS'dpt_55'
p62
aS'dpt_56'
p63
aS'dpt_57'
p64
aS'dpt_58'
p65
aS'dpt_59'
p66
aS'dpt_60'
p67
aS'dpt_61'
p68
aS'dpt_62'
p69
aS'dpt_63'
p70
aS'dpt_64'
p71
aS'dpt_65'
p72
aS'dpt_66'
p73
aS'dpt_67'
p74
aS'dpt_68'
p75
aS'dpt_69'
p76
aS'dpt_70'
p77
aS'dpt_71'
p78
aS'dpt_72'
p79
aS'dpt_73'
p80
aS'dpt_74'
p81
aS'dpt_75'
p82
aS'dpt_76'
p83
aS'dpt_77'
p84
aS'dpt_78'
p85
aS'dpt_79'
p86
aS'dpt_80'
p87
aS'dpt_81'
p88
aS'dpt_82'
p89
aS'dpt_83'
p90
aS'dpt_84'
p91
aS'dpt_85'
p92
aS'dpt_86'
p93
aS'dpt_87'
p94
aS'dpt_88'
p95
aS'dpt_89'
p96
aS'dpt_90'
p97
aS'dpt_91'
p98
aS'dpt_92'
p99
aS'dpt_93'
p100
aS'dpt_94'
p101
aS'dpt_95'
p102
aS'dpt_97'
p103
aS'dpt_98'
p104
aS'dpt_99'
p105
aS'type_ghm_C'
p106
aS'type_ghm_H'
p107
aS'type_ghm_K'
p108
aS'type_ghm_M'
p109
aS'type_ghm_Z'
p110
aS'complexity_ghm_1'
p111
aS'complexity_ghm_2'
p112
aS'complexity_ghm_3'
p113
aS'complexity_ghm_4'
p114
aS'complexity_ghm_A'
p115
aS'complexity_ghm_B'
p116
aS'complexity_ghm_C'
p117
aS'complexity_ghm_D'
p118
aS'complexity_ghm_E'
p119
aS'complexity_ghm_E'
p120
aS'complexity_ghm_J'
p121
aS'complexity_ghm_S'
p122
aS'complexity_ghm_T'
p123
aS'complexity_ghm_V'
p124
aS'complexity_ghm_W'
p125
aS'complexity_ghm_Z'
p126
aS'complexity_ghm_Z'
p127
aS'type_um_01A'
p128
aS'type_um_01B'
p129
aS'type_um_02A'
p130
aS'type_um_02B'
p131
aS'type_um_03A'
p132
aS'type_um_03B'
p133
aS'type_um_04'
p134
aS'type_um_05'
p135
aS'type_um_06'
p136
aS'type_um_07A'
p137
aS'type_um_07B'
p138
aS'type_um_08'
p139
aS'type_um_13A'
p140
aS'type_um_13B'
p141
aS'type_um_14A'
p142
aS'type_um_14B'
p143
aS'type_um_16'
p144
aS'type_um_17'
p145
aS'type_um_18'
p146
aS'type_um_19'
p147
aS'type_um_20'
p148
aS'type_um_21'
p149
aS'type_um_22'
p150
aS'type_um_23'
p151
aS'type_um_26'
p152
aS'type_um_27'
p153
aS'type_um_28'
p154
aS'type_um_29'
p155
aS'type_um_30'
p156
aS'type_um_34'
p157
aS'type_um_35'
p158
aS'type_um_36'
p159
aS'type_um_37'
p160
aS'type_um_40'
p161
aS'type_um_41'
p162
aS'type_um_42'
p163
aS'type_um_43'
p164
aS'type_um_50'
p165
aS'type_um_51'
p166
aS'type_um_52'
p167
aS'type_um_53'
p168
aS'type_um_60'
p169
aS'type_um_61'
p170
aS'type_um_70'
p171
aS'type_um_71'
p172
aS'type_um_72'
p173
aS'type_um_73'
p174
aS'type_um_88'
p175
a.