(dp0
S'type_ghm_H'
p1
I2
sS'type_ghm_Z'
p2
I3
sS'complexity_ghm_4'
p3
I4
sS'complexity_ghm_2'
p4
I5
sS'complexity_ghm_3'
p5
I6
sS'complexity_ghm_1'
p6
I7
sS'dpt_58'
p7
I8
sS'dpt_59'
p8
I9
sS'dpt_56'
p9
I10
sS'dpt_57'
p10
I11
sS'dpt_54'
p11
I12
sS'dpt_55'
p12
I13
sS'dpt_52'
p13
I14
sS'dpt_53'
p14
I15
sS'dpt_50'
p15
I16
sS'dpt_51'
p16
I17
sS'type_um_30'
p17
I18
sS'type_um_37'
p18
I19
sS'type_um_36'
p19
I20
sS'type_um_35'
p20
I21
sS'type_um_34'
p21
I22
sS'emergency'
p22
I23
sS'cmd_90'
p23
I24
sS'complexity_ghm_J'
p24
I25
sS'dpt_49'
p25
I26
sS'dpt_48'
p26
I27
sS'type_um_01A'
p27
I28
sS'dpt_45'
p28
I29
sS'dpt_44'
p29
I30
sS'dpt_47'
p30
I31
sS'dpt_46'
p31
I32
sS'dpt_41'
p32
I33
sS'dpt_40'
p33
I34
sS'dpt_43'
p34
I35
sS'dpt_42'
p35
I36
sS'cmd_18'
p36
I37
sS'cmd_19'
p37
I38
sS'complexity_ghm_Z'
p38
I39
sS'type_um_53'
p39
I40
sS'cmd_12'
p40
I41
sS'cmd_13'
p41
I42
sS'cmd_10'
p42
I43
sS'cmd_11'
p43
I44
sS'cmd_16'
p44
I45
sS'cmd_17'
p45
I46
sS'cmd_14'
p46
I47
sS'cmd_15'
p47
I48
sS'complexity_ghm_E'
p48
I49
sS'complexity_ghm_B'
p49
I50
sS'type_um_01B'
p50
I51
sS'complexity_ghm_V'
p51
I52
sS'sex'
p52
I53
sS'complexity_ghm_A'
p53
I54
sS'dpt_78'
p54
I55
sS'dpt_79'
p55
I56
sS'type_um_07B'
p56
I57
sS'type_um_05'
p57
I58
sS'type_um_07A'
p58
I59
sS'dpt_70'
p59
I60
sS'dpt_71'
p60
I61
sS'dpt_72'
p61
I62
sS'dpt_73'
p62
I63
sS'dpt_74'
p63
I64
sS'dpt_75'
p64
I65
sS'dpt_76'
p65
I66
sS'dpt_77'
p66
I67
sS'cmd_09'
p67
I68
sS'cmd_08'
p68
I69
sS'type_ghm_C'
p69
I70
sS'cmd_01'
p70
I71
sS'type_ghm_M'
p71
I72
sS'cmd_03'
p72
I73
sS'cmd_02'
p73
I74
sS'cmd_05'
p74
I75
sS'cmd_04'
p75
I76
sS'cmd_07'
p76
I77
sS'cmd_06'
p77
I78
sS'dpt_67'
p78
I79
sS'dpt_66'
p79
I80
sS'dpt_65'
p80
I81
sS'dpt_64'
p81
I82
sS'dpt_63'
p82
I83
sS'dpt_62'
p83
I84
sS'dpt_61'
p84
I85
sS'dpt_60'
p85
I86
sS'complexity_ghm_T'
p86
I87
sS'dpt_69'
p87
I88
sS'dpt_68'
p88
I89
sS'type_um_42'
p89
I90
sS'complexity_ghm_S'
p90
I91
sS'type_um_60'
p91
I92
sS'type_um_61'
p92
I93
sS'type_um_40'
p93
I94
sS'type_um_41'
p94
I95
sS'type_um_51'
p95
I96
sS'type_um_06'
p96
I97
sS'type_um_04'
p97
I98
sS'complexity_ghm_C'
p98
I99
sS'type_um_08'
p99
I100
sS'private'
p100
I101
sS'dpt_12'
p101
I102
sS'dpt_13'
p102
I103
sS'dpt_10'
p103
I104
sS'dpt_11'
p104
I105
sS'dpt_16'
p105
I106
sS'dpt_17'
p106
I107
sS'dpt_14'
p107
I108
sS'dpt_15'
p108
I109
sS'dpt_18'
p109
I110
sS'dpt_19'
p110
I111
sS'cmd_23'
p111
I112
sS'cmd_22'
p112
I113
sS'cmd_21'
p113
I114
sS'cmd_20'
p114
I115
sS'cmd_27'
p115
I116
sS'cmd_26'
p116
I117
sS'cmd_25'
p117
I118
sS'cmd_24'
p118
I119
sS'cmd_28'
p119
I120
sS'dpt_98'
p120
I121
sS'dpt_99'
p121
I122
sS'type_um_73'
p122
I123
sS'type_um_72'
p123
I124
sS'type_um_50'
p124
I125
sS'type_um_70'
p125
I126
sS'dpt_92'
p126
I127
sS'dpt_93'
p127
I128
sS'dpt_90'
p128
I129
sS'dpt_91'
p129
I130
sS'dpt_97'
p130
I131
sS'dpt_94'
p131
I132
sS'dpt_95'
p132
I133
sS'type_um_11'
p133
I134
sS'type_um_12'
p134
I135
sS'type_um_71'
p135
I136
sS'type_um_17'
p136
I137
sS'type_um_16'
p137
I138
sS'type_um_19'
p138
I139
sS'type_um_18'
p139
I140
sS'dpt_01'
p140
I141
sS'dpt_03'
p141
I142
sS'dpt_02'
p142
I143
sS'dpt_05'
p143
I144
sS'dpt_04'
p144
I145
sS'dpt_07'
p145
I146
sS'dpt_06'
p146
I147
sS'dpt_09'
p147
I148
sS'dpt_08'
p148
I149
sS'type_um_52'
p149
I150
sS'stay_length'
p150
I1
sS'dpt_89'
p151
I151
sS'dpt_88'
p152
I152
sS'dpt_81'
p153
I153
sS'dpt_80'
p154
I154
sS'dpt_83'
p155
I155
sS'dpt_82'
p156
I156
sS'dpt_85'
p157
I157
sS'dpt_84'
p158
I158
sS'dpt_87'
p159
I159
sS'dpt_86'
p160
I160
sS'type_um_26'
p161
I161
sS'type_um_27'
p162
I162
sS'type_um_20'
p163
I163
sS'type_um_21'
p164
I164
sS'type_um_22'
p165
I165
sS'type_um_23'
p166
I166
sS'type_um_28'
p167
I167
sS'type_um_29'
p168
I168
sS'type_um_43'
p169
I169
sS'type_um_13B'
p170
I170
sS'type_um_13A'
p171
I171
sS'dpt_38'
p172
I172
sS'dpt_39'
p173
I173
sS'complexity_ghm_W'
p174
I174
sS'dpt_34'
p175
I175
sS'dpt_35'
p176
I176
sS'dpt_36'
p177
I177
sS'dpt_37'
p178
I178
sS'dpt_30'
p179
I179
sS'dpt_31'
p180
I180
sS'dpt_32'
p181
I181
sS'dpt_33'
p182
I182
sS'type_um_03B'
p183
I183
sS'dpt_2B'
p184
I184
sS'dpt_2A'
p185
I185
sS'type_um_03A'
p186
I186
sS'type_ghm_K'
p187
I187
sS'type_um_88'
p188
I188
sS'dpt_29'
p189
I189
sS'dpt_28'
p190
I190
sS'type_um_02A'
p191
I191
sS'complexity_ghm_D'
p192
I192
sS'type_um_02B'
p193
I193
sS'dpt_23'
p194
I194
sS'dpt_22'
p195
I195
sS'dpt_21'
p196
I196
sS'dpt_20'
p197
I197
sS'dpt_27'
p198
I198
sS'dpt_26'
p199
I199
sS'dpt_25'
p200
I200
sS'dpt_24'
p201
I201
sS'type_um_14B'
p202
I202
sS'type_um_14A'
p203
I203
sS'age'
p204
I0
s.