(dp0
S'diag_B41'
p1
I178
sS'diag_B15'
p2
I156
sS'diag_V33'
p3
I1685
sS'diag_V32'
p4
I1684
sS'diag_Y35'
p5
I1972
sS'diag_V37'
p6
I1689
sS'diag_V36'
p7
I1688
sS'diag_V35'
p8
I1687
sS'diag_V34'
p9
I1686
sS'type_ghm_Z'
p10
I2236
sS'type_ghm_C'
p11
I2232
sS'type_ghm_M'
p12
I2235
sS'type_ghm_H'
p13
I2233
sS'type_ghm_K'
p14
I2234
sS'stay_length_10'
p15
I2216
sS'stay_length_15'
p16
I2217
sS'diag_T07'
p17
I1559
sS'diag_E85'
p18
I470
sS'diag_E84'
p19
I469
sS'diag_E87'
p20
I472
sS'diag_E86'
p21
I471
sS'diag_E80'
p22
I467
sS'diag_E83'
p23
I468
sS'diag_E89'
p24
I474
sS'diag_E88'
p25
I473
sS'diag_G43'
p26
I584
sS'type_um_61'
p27
I2281
sS'diag_B17'
p28
I158
sS'diag_B16'
p29
I157
sS'diag_G47'
p30
I588
sS'diag_G46'
p31
I587
sS'diag_G45'
p32
I586
sS'diag_G44'
p33
I585
sS'diag_B19'
p34
I160
sS'diag_B18'
p35
I159
sS'diag_E41'
p36
I434
sS'diag_E68'
p37
I456
sS'diag_E40'
p38
I433
sS'diag_E63'
p39
I451
sS'diag_K46'
p40
I870
sS'diag_E61'
p41
I450
sS'diag_E60'
p42
I449
sS'diag_E67'
p43
I455
sS'diag_K42'
p44
I866
sS'diag_K41'
p45
I865
sS'diag_E64'
p46
I452
sS'type_um_88'
p47
I2286
sS'diag_E42'
p48
I435
sS'diag_M89'
p49
I1048
sS'diag_M88'
p50
I1047
sS'diag_M85'
p51
I1044
sS'diag_E45'
p52
I438
sS'diag_M87'
p53
I1046
sS'diag_M86'
p54
I1045
sS'diag_M81'
p55
I1040
sS'diag_M80'
p56
I1039
sS'diag_M83'
p57
I1042
sS'diag_M82'
p58
I1041
sS'diag_E46'
p59
I439
sS'diag_A09'
p60
I69
sS'diag_A08'
p61
I68
sS'diag_Y65'
p62
I1999
sS'diag_Y64'
p63
I1998
sS'diag_Y63'
p64
I1997
sS'diag_Y62'
p65
I1996
sS'diag_Y61'
p66
I1995
sS'diag_Y60'
p67
I1994
sS'diag_A01'
p68
I61
sS'diag_A00'
p69
I60
sS'diag_A03'
p70
I63
sS'diag_A02'
p71
I62
sS'diag_A05'
p72
I65
sS'diag_A04'
p73
I64
sS'diag_A07'
p74
I67
sS'diag_A06'
p75
I66
sS'diag_O61'
p76
I1181
sS'diag_O60'
p77
I1180
sS'diag_O63'
p78
I1183
sS'diag_O62'
p79
I1182
sS'diag_O65'
p80
I1185
sS'diag_O64'
p81
I1184
sS'diag_O67'
p82
I1187
sS'diag_O66'
p83
I1186
sS'diag_O69'
p84
I1189
sS'diag_O68'
p85
I1188
sS'diag_X19'
p86
I1858
sS'diag_X18'
p87
I1857
sS'diag_C69'
p88
I294
sS'diag_C68'
p89
I293
sS'diag_C65'
p90
I290
sS'diag_C64'
p91
I289
sS'diag_C67'
p92
I292
sS'diag_C66'
p93
I291
sS'diag_C61'
p94
I286
sS'diag_C60'
p95
I285
sS'diag_C63'
p96
I288
sS'diag_C62'
p97
I287
sS'diag_R15'
p98
I1375
sS'diag_R14'
p99
I1374
sS'diag_R17'
p100
I1377
sS'diag_R16'
p101
I1376
sS'diag_R11'
p102
I1371
sS'diag_R10'
p103
I1370
sS'diag_R13'
p104
I1373
sS'diag_R12'
p105
I1372
sS'diag_W49'
p106
I1799
sS'diag_R19'
p107
I1379
sS'diag_R18'
p108
I1378
sS'diag_Y40'
p109
I1974
sS'type_um_13B'
p110
I2252
sS'type_um_13A'
p111
I2251
sS'diag_I67'
p112
I745
sS'diag_I66'
p113
I744
sS'diag_I65'
p114
I743
sS'diag_I64'
p115
I742
sS'diag_I63'
p116
I741
sS'diag_I62'
p117
I740
sS'diag_I61'
p118
I739
sS'diag_I60'
p119
I738
sS'diag_I69'
p120
I747
sS'diag_I68'
p121
I746
sS'diag_Q01'
p122
I1275
sS'diag_Q00'
p123
I1274
sS'diag_Q03'
p124
I1277
sS'diag_Q02'
p125
I1276
sS'diag_Q05'
p126
I1279
sS'diag_Q04'
p127
I1278
sS'diag_Q07'
p128
I1281
sS'diag_Q06'
p129
I1280
sS'diag_H19'
p130
I636
sS'diag_H18'
p131
I635
sS'diag_H13'
p132
I631
sS'diag_H11'
p133
I630
sS'diag_H10'
p134
I629
sS'diag_H17'
p135
I634
sS'diag_H16'
p136
I633
sS'diag_H15'
p137
I632
sS'diag_U85'
p138
I1653
sS'diag_U84'
p139
I1652
sS'diag_U83'
p140
I1651
sS'diag_U82'
p141
I1650
sS'diag_S69'
p142
I1521
sS'diag_S68'
p143
I1520
sS'diag_P38'
p144
I1242
sS'diag_S65'
p145
I1517
sS'diag_S64'
p146
I1516
sS'diag_S67'
p147
I1519
sS'diag_S66'
p148
I1518
sS'diag_S61'
p149
I1513
sS'diag_S60'
p150
I1512
sS'diag_S63'
p151
I1515
sS'diag_S62'
p152
I1514
sS'diag_S24'
p153
I1476
sS'diag_V88'
p154
I1740
sS'diag_V89'
p155
I1741
sS'diag_V86'
p156
I1738
sS'diag_V87'
p157
I1739
sS'stay_length_4'
p158
I2224
sS'stay_length_5'
p159
I2227
sS'stay_length_2'
p160
I2218
sS'stay_length_3'
p161
I2221
sS'stay_length_0'
p162
I2214
sS'stay_length_1'
p163
I2215
sS'diag_N51'
p164
I1105
sS'diag_B07'
p165
I153
sS'diag_G72'
p166
I606
sS'diag_G73'
p167
I607
sS'diag_G70'
p168
I604
sS'diag_G71'
p169
I605
sS'diag_K72'
p170
I889
sS'diag_K73'
p171
I890
sS'diag_K70'
p172
I887
sS'diag_K71'
p173
I888
sS'diag_K76'
p174
I893
sS'diag_K77'
p175
I894
sS'diag_E58'
p176
I447
sS'diag_K75'
p177
I892
sS'diag_E56'
p178
I446
sS'diag_E54'
p179
I444
sS'diag_E55'
p180
I445
sS'diag_E52'
p181
I442
sS'diag_E53'
p182
I443
sS'diag_E50'
p183
I440
sS'diag_E51'
p184
I441
sS'diag_M70'
p185
I1031
sS'diag_M71'
p186
I1032
sS'diag_M72'
p187
I1033
sS'diag_M73'
p188
I1034
sS'diag_M75'
p189
I1035
sS'diag_M76'
p190
I1036
sS'diag_M77'
p191
I1037
sS'diag_M79'
p192
I1038
sS'diag_Y58'
p193
I1992
sS'diag_Y59'
p194
I1993
sS'diag_D89'
p195
I402
sS'diag_D84'
p196
I400
sS'diag_Y53'
p197
I1987
sS'diag_D86'
p198
I401
sS'diag_Y51'
p199
I1985
sS'diag_D80'
p200
I396
sS'diag_D81'
p201
I397
sS'diag_D82'
p202
I398
sS'diag_D83'
p203
I399
sS'diag_X30'
p204
I1869
sS'diag_A78'
p205
I125
sS'diag_A79'
p206
I126
sS'diag_A74'
p207
I122
sS'diag_A75'
p208
I123
sS'diag_A77'
p209
I124
sS'diag_A70'
p210
I120
sS'diag_A71'
p211
I121
sS'diag_O14'
p212
I1152
sS'diag_O15'
p213
I1153
sS'diag_O16'
p214
I1154
sS'diag_O10'
p215
I1148
sS'diag_O11'
p216
I1149
sS'diag_O12'
p217
I1150
sS'diag_O13'
p218
I1151
sS'diag_L84'
p219
I963
sS'diag_L85'
p220
I964
sS'diag_L86'
p221
I965
sS'diag_L87'
p222
I966
sS'diag_L80'
p223
I959
sS'diag_L81'
p224
I960
sS'diag_L82'
p225
I961
sS'diag_L83'
p226
I962
sS'diag_L88'
p227
I967
sS'diag_L89'
p228
I968
sS'diag_X32'
p229
I1871
sS'diag_C90'
p230
I313
sS'diag_C91'
p231
I314
sS'diag_C92'
p232
I315
sS'diag_C93'
p233
I316
sS'diag_C94'
p234
I317
sS'diag_C95'
p235
I318
sS'diag_C96'
p236
I319
sS'diag_C97'
p237
I320
sS'diag_X26'
p238
I1865
sS'diag_X27'
p239
I1866
sS'diag_X24'
p240
I1863
sS'diag_X25'
p241
I1864
sS'diag_X22'
p242
I1861
sS'diag_X23'
p243
I1862
sS'diag_X20'
p244
I1859
sS'diag_X21'
p245
I1860
sS'diag_W76'
p246
I1821
sS'diag_W77'
p247
I1822
sS'diag_W74'
p248
I1819
sS'diag_W75'
p249
I1820
sS'diag_W73'
p250
I1818
sS'diag_W70'
p251
I1817
sS'diag_X36'
p252
I1875
sS'diag_W78'
p253
I1823
sS'diag_W79'
p254
I1824
sS'diag_N28'
p255
I1083
sS'diag_N29'
p256
I1084
sS'diag_O95'
p257
I1210
sS'diag_I52'
p258
I737
sS'diag_N21'
p259
I1077
sS'diag_N22'
p260
I1078
sS'diag_N23'
p261
I1079
sS'diag_N25'
p262
I1080
sS'diag_N26'
p263
I1081
sS'diag_N27'
p264
I1082
sS'diag_O97'
p265
I1212
sS'diag_K90'
p266
I902
sS'diag_K91'
p267
I903
sS'diag_K92'
p268
I904
sS'diag_K93'
p269
I905
sS'diag_O91'
p270
I1207
sS'diag_O92'
p271
I1208
sS'diag_Q78'
p272
I1341
sS'diag_Q79'
p273
I1342
sS'diag_Q74'
p274
I1337
sS'diag_Q75'
p275
I1338
sS'diag_Q76'
p276
I1339
sS'diag_Q77'
p277
I1340
sS'diag_Q70'
p278
I1333
sS'diag_Q71'
p279
I1334
sS'diag_Q72'
p280
I1335
sS'diag_Q73'
p281
I1336
sS'diag_T50'
p282
I1602
sS'diag_H28'
p283
I643
sS'dpt_59'
p284
I2172
sS'dpt_56'
p285
I2169
sS'diag_H27'
p286
I642
sS'dpt_54'
p287
I2167
sS'dpt_55'
p288
I2168
sS'diag_H22'
p289
I639
sS'dpt_53'
p290
I2166
sS'diag_H20'
p291
I637
sS'diag_H21'
p292
I638
sS'diag_S90'
p293
I1542
sS'diag_S91'
p294
I1543
sS'diag_S92'
p295
I1544
sS'diag_S93'
p296
I1545
sS'diag_S94'
p297
I1546
sS'diag_S95'
p298
I1547
sS'diag_S96'
p299
I1548
sS'diag_S97'
p300
I1549
sS'diag_S98'
p301
I1550
sS'diag_S99'
p302
I1551
sS'diag_P00'
p303
I1215
sS'diag_P01'
p304
I1216
sS'diag_P02'
p305
I1217
sS'diag_P03'
p306
I1218
sS'diag_P04'
p307
I1219
sS'diag_P05'
p308
I1220
sS'diag_P07'
p309
I1221
sS'type_um_21'
p310
I2260
sS'diag_X38'
p311
I1877
sS'diag_T88'
p312
I1637
sS'diag_T84'
p313
I1633
sS'diag_T85'
p314
I1634
sS'diag_T86'
p315
I1635
sS'diag_T87'
p316
I1636
sS'diag_T80'
p317
I1629
sS'diag_T81'
p318
I1630
sS'diag_T82'
p319
I1631
sS'diag_T83'
p320
I1632
sS'diag_M12'
p321
I989
sS'diag_I45'
p322
I730
sS'type_um_23'
p323
I2262
sS'diag_I44'
p324
I729
sS'diag_M16'
p325
I993
sS'diag_I47'
p326
I732
sS'diag_M17'
p327
I994
sS'diag_I46'
p328
I731
sS'diag_M14'
p329
I991
sS'diag_I41'
p330
I726
sS'diag_M15'
p331
I992
sS'diag_I40'
p332
I725
sS'diag_I43'
p333
I728
sS'diag_I42'
p334
I727
sS'diag_O94'
p335
I1209
sS'diag_O96'
p336
I1211
sS'diag_X31'
p337
I1870
sS'diag_O90'
p338
I1206
sS'diag_V91'
p339
I1743
sS'diag_G61'
p340
I600
sS'diag_G60'
p341
I599
sS'diag_G63'
p342
I602
sS'diag_G62'
p343
I601
sS'diag_G64'
p344
I603
sS'diag_V90'
p345
I1742
sS'diag_K65'
p346
I884
sS'diag_K64'
p347
I883
sS'diag_K67'
p348
I886
sS'diag_K66'
p349
I885
sS'diag_K61'
p350
I880
sS'diag_K60'
p351
I879
sS'diag_K63'
p352
I882
sS'diag_K62'
p353
I881
sS'diag_M63'
p354
I1026
sS'diag_M62'
p355
I1025
sS'diag_M61'
p356
I1024
sS'diag_M60'
p357
I1023
sS'diag_M67'
p358
I1029
sS'diag_M66'
p359
I1028
sS'diag_M65'
p360
I1027
sS'diag_M68'
p361
I1030
sS'type_um_60'
p362
I2280
sS'diag_Y49'
p363
I1983
sS'diag_Y48'
p364
I1982
sS'diag_Y45'
p365
I1979
sS'diag_Y44'
p366
I1978
sS'diag_Y47'
p367
I1981
sS'diag_Y46'
p368
I1980
sS'diag_Y41'
p369
I1975
sS'diag_G41'
p370
I583
sS'diag_Y43'
p371
I1977
sS'diag_Y42'
p372
I1976
sS'diag_G40'
p373
I582
sS'diag_A69'
p374
I119
sS'diag_A68'
p375
I118
sS'diag_A67'
p376
I117
sS'diag_A66'
p377
I116
sS'diag_A65'
p378
I115
sS'diag_A64'
p379
I114
sS'diag_A63'
p380
I113
sS'diag_A60'
p381
I112
sS'diag_O07'
p382
I1146
sS'diag_O06'
p383
I1145
sS'diag_O05'
p384
I1144
sS'diag_O04'
p385
I1143
sS'diag_O03'
p386
I1142
sS'diag_O02'
p387
I1141
sS'diag_O01'
p388
I1140
sS'diag_O00'
p389
I1139
sS'diag_Q60'
p390
I1323
sS'diag_O08'
p391
I1147
sS'diag_L97'
p392
I975
sS'diag_W94'
p393
I1838
sS'diag_L95'
p394
I974
sS'diag_L94'
p395
I973
sS'diag_L93'
p396
I972
sS'diag_L92'
p397
I971
sS'diag_L91'
p398
I970
sS'diag_L90'
p399
I969
sS'diag_L99'
p400
I977
sS'diag_L98'
p401
I976
sS'diag_C83'
p402
I308
sS'diag_C82'
p403
I307
sS'diag_C81'
p404
I306
sS'diag_C80'
p405
I305
sS'diag_X35'
p406
I1874
sS'diag_C86'
p407
I311
sS'diag_C85'
p408
I310
sS'diag_C84'
p409
I309
sS'diag_X39'
p410
I1878
sS'diag_W90'
p411
I1834
sS'diag_C88'
p412
I312
sS'diag_W91'
p413
I1835
sS'diag_W92'
p414
I1836
sS'diag_W93'
p415
I1837
sS'diag_N39'
p416
I1093
sS'diag_I49'
p417
I734
sS'diag_I48'
p418
I733
sS'diag_N33'
p419
I1088
sS'diag_N32'
p420
I1087
sS'diag_N31'
p421
I1086
sS'diag_N30'
p422
I1085
sS'diag_N37'
p423
I1092
sS'diag_N36'
p424
I1091
sS'diag_N35'
p425
I1090
sS'diag_N34'
p426
I1089
sS'diag_K83'
p427
I898
sS'diag_K82'
p428
I897
sS'diag_K81'
p429
I896
sS'diag_K80'
p430
I895
sS'diag_K87'
p431
I901
sS'diag_K86'
p432
I900
sS'diag_K85'
p433
I899
sS'diag_K45'
p434
I869
sS'diag_K44'
p435
I868
sS'diag_Q69'
p436
I1332
sS'diag_Q68'
p437
I1331
sS'diag_Q67'
p438
I1330
sS'diag_K43'
p439
I867
sS'diag_Q65'
p440
I1328
sS'diag_Q64'
p441
I1327
sS'diag_Q63'
p442
I1326
sS'diag_Q62'
p443
I1325
sS'diag_Q61'
p444
I1324
sS'diag_E66'
p445
I454
sS'diag_E65'
p446
I453
sS'dpt_49'
p447
I2162
sS'diag_K40'
p448
I864
sS'dpt_48'
p449
I2161
sS'diag_H31'
p450
I645
sS'diag_H30'
p451
I644
sS'diag_H33'
p452
I647
sS'diag_H32'
p453
I646
sS'diag_H35'
p454
I649
sS'diag_H34'
p455
I648
sS'diag_H36'
p456
I650
sS'dpt_45'
p457
I2158
sS'dpt_44'
p458
I2157
sS'dpt_47'
p459
I2160
sS'dpt_46'
p460
I2159
sS'dpt_41'
p461
I2154
sS'dpt_40'
p462
I2153
sS'dpt_43'
p463
I2156
sS'dpt_42'
p464
I2155
sS'diag_W69'
p465
I1816
sS'diag_W68'
p466
I1815
sS'diag_W60'
p467
I1810
sS'diag_W65'
p468
I1812
sS'diag_W64'
p469
I1811
sS'diag_W67'
p470
I1814
sS'diag_W66'
p471
I1813
sS'diag_S83'
p472
I1535
sS'diag_S82'
p473
I1534
sS'diag_S81'
p474
I1533
sS'diag_S80'
p475
I1532
sS'diag_S87'
p476
I1539
sS'diag_S86'
p477
I1538
sS'diag_S85'
p478
I1537
sS'diag_S84'
p479
I1536
sS'diag_S89'
p480
I1541
sS'diag_S88'
p481
I1540
sS'diag_P13'
p482
I1226
sS'diag_P12'
p483
I1225
sS'diag_P11'
p484
I1224
sS'diag_P10'
p485
I1223
sS'diag_P15'
p486
I1228
sS'diag_M84'
p487
I1043
sS'diag_V40'
p488
I1692
sS'cmd_23'
p489
I38
sS'diag_V41'
p490
I1693
sS'diag_T98'
p491
I1646
sS'diag_T97'
p492
I1645
sS'diag_T96'
p493
I1644
sS'diag_T95'
p494
I1643
sS'diag_T94'
p495
I1642
sS'diag_T93'
p496
I1641
sS'diag_T92'
p497
I1640
sS'diag_T91'
p498
I1639
sS'diag_T90'
p499
I1638
sS'diag_Q66'
p500
I1329
sS'cmd_22'
p501
I37
sS'diag_V48'
p502
I1700
sS'diag_Z90'
p503
I2102
sS'diag_V49'
p504
I1701
sS'diag_Y66'
p505
I2000
sS'diag_I02'
p506
I695
sS'diag_T21'
p507
I1573
sS'diag_L22'
p508
I920
sS'diag_Y69'
p509
I2001
sS'stay_length_60'
p510
I2230
sS'stay_length_65'
p511
I2231
sS'diag_P14'
p512
I1227
sS'diag_G14'
p513
I568
sS'diag_G10'
p514
I564
sS'diag_G11'
p515
I565
sS'diag_G12'
p516
I566
sS'diag_G13'
p517
I567
sS'diag_N42'
p518
I1096
sS'diag_N43'
p519
I1097
sS'diag_N40'
p520
I1094
sS'diag_E34'
p521
I431
sS'diag_E35'
p522
I432
sS'diag_N41'
p523
I1095
sS'diag_E30'
p524
I428
sS'diag_E31'
p525
I429
sS'diag_E32'
p526
I430
sS'diag_N46'
p527
I1100
sS'diag_N47'
p528
I1101
sS'diag_M54'
p529
I1022
sS'diag_N44'
p530
I1098
sS'diag_M50'
p531
I1019
sS'diag_M51'
p532
I1020
sS'diag_N45'
p533
I1099
sS'diag_F20'
p534
I495
sS'diag_F21'
p535
I496
sS'diag_F22'
p536
I497
sS'diag_F23'
p537
I498
sS'diag_F24'
p538
I499
sS'diag_F25'
p539
I500
sS'diag_A54'
p540
I106
sS'diag_A55'
p541
I107
sS'diag_F28'
p542
I501
sS'diag_F29'
p543
I502
sS'diag_A58'
p544
I110
sS'diag_A59'
p545
I111
sS'diag_D48'
p546
I368
sS'diag_D40'
p547
I360
sS'diag_D41'
p548
I361
sS'diag_D42'
p549
I362
sS'diag_D43'
p550
I363
sS'diag_D44'
p551
I364
sS'diag_D45'
p552
I365
sS'diag_D46'
p553
I366
sS'diag_D47'
p554
I367
sS'diag_X34'
p555
I1873
sS'diag_X44'
p556
I1883
sS'diag_X45'
p557
I1884
sS'diag_X46'
p558
I1885
sS'diag_X47'
p559
I1886
sS'diag_X40'
p560
I1879
sS'diag_X41'
p561
I1880
sS'diag_X42'
p562
I1881
sS'diag_X43'
p563
I1882
sS'diag_X48'
p564
I1887
sS'diag_X49'
p565
I1888
sS'cmd_90'
p566
I44
sS'diag_N08'
p567
I1065
sS'diag_N06'
p568
I1063
sS'diag_N07'
p569
I1064
sS'diag_N04'
p570
I1061
sS'diag_N05'
p571
I1062
sS'diag_N02'
p572
I1059
sS'diag_N03'
p573
I1060
sS'diag_N00'
p574
I1057
sS'diag_N01'
p575
I1058
sS'diag_Q52'
p576
I1318
sS'diag_Q53'
p577
I1319
sS'diag_Q50'
p578
I1316
sS'diag_Q51'
p579
I1317
sS'diag_Q56'
p580
I1322
sS'diag_V25'
p581
I1677
sS'diag_Q54'
p582
I1320
sS'diag_Q55'
p583
I1321
sS'diag_V28'
p584
I1680
sS'diag_V29'
p585
I1681
sS'diag_Z88'
p586
I2100
sS'dpt_78'
p587
I2191
sS'dpt_79'
p588
I2192
sS'diag_H46'
p589
I656
sS'diag_H47'
p590
I657
sS'diag_H40'
p591
I651
sS'diag_H42'
p592
I652
sS'diag_H43'
p593
I653
sS'dpt_70'
p594
I2183
sS'dpt_71'
p595
I2184
sS'dpt_72'
p596
I2185
sS'dpt_73'
p597
I2186
sS'dpt_74'
p598
I2187
sS'dpt_75'
p599
I2188
sS'dpt_76'
p600
I2189
sS'dpt_77'
p601
I2190
sS'diag_W18'
p602
I1770
sS'diag_W19'
p603
I1771
sS'diag_X37'
p604
I1876
sS'diag_W14'
p605
I1766
sS'diag_W15'
p606
I1767
sS'diag_W16'
p607
I1768
sS'diag_W17'
p608
I1769
sS'diag_W10'
p609
I1762
sS'diag_W11'
p610
I1763
sS'diag_W12'
p611
I1764
sS'diag_W13'
p612
I1765
sS'diag_P26'
p613
I1235
sS'diag_P27'
p614
I1236
sS'diag_P24'
p615
I1233
sS'diag_P25'
p616
I1234
sS'diag_P22'
p617
I1231
sS'diag_P23'
p618
I1232
sS'diag_P20'
p619
I1229
sS'diag_P21'
p620
I1230
sS'diag_X11'
p621
I1850
sS'diag_P28'
p622
I1237
sS'diag_P29'
p623
I1238
sS'diag_X10'
p624
I1849
sS'diag_X17'
p625
I1856
sS'diag_X16'
p626
I1855
sS'diag_X15'
p627
I1854
sS'diag_X14'
p628
I1853
sS'diag_W43'
p629
I1795
sS'diag_W42'
p630
I1794
sS'diag_W41'
p631
I1793
sS'diag_T48'
p632
I1600
sS'diag_T49'
p633
I1601
sS'diag_W40'
p634
I1792
sS'diag_T40'
p635
I1592
sS'diag_T41'
p636
I1593
sS'diag_T42'
p637
I1594
sS'diag_T43'
p638
I1595
sS'diag_T44'
p639
I1596
sS'diag_T45'
p640
I1597
sS'diag_T46'
p641
I1598
sS'diag_T47'
p642
I1599
sS'diag_X13'
p643
I1852
sS'diag_W45'
p644
I1797
sS'diag_W44'
p645
I1796
sS'diag_B23'
p646
I164
sS'diag_X12'
p647
I1851
sS'diag_A23'
p648
I78
sS'diag_A22'
p649
I77
sS'diag_F93'
p650
I549
sS'diag_F92'
p651
I548
sS'diag_F95'
p652
I551
sS'diag_A26'
p653
I81
sS'diag_M34'
p654
I1007
sS'diag_M35'
p655
I1008
sS'age_45'
p656
I8
sS'diag_B80'
p657
I214
sS'age_40'
p658
I7
sS'stay_length_35'
p659
I2223
sS'diag_B86'
p660
I219
sS'diag_B87'
p661
I220
sS'diag_B85'
p662
I218
sS'diag_G09'
p663
I563
sS'diag_G08'
p664
I562
sS'diag_G07'
p665
I561
sS'diag_G06'
p666
I560
sS'diag_G05'
p667
I559
sS'diag_G04'
p668
I558
sS'diag_G03'
p669
I557
sS'diag_G02'
p670
I556
sS'diag_G01'
p671
I555
sS'diag_G00'
p672
I554
sS'diag_J46'
p673
I806
sS'diag_M49'
p674
I1018
sS'diag_E26'
p675
I424
sS'diag_E25'
p676
I423
sS'diag_E24'
p677
I422
sS'diag_E23'
p678
I421
sS'diag_E22'
p679
I420
sS'diag_E21'
p680
I419
sS'diag_E20'
p681
I418
sS'diag_M41'
p682
I1011
sS'diag_M40'
p683
I1010
sS'diag_M43'
p684
I1013
sS'diag_M42'
p685
I1012
sS'diag_M45'
p686
I1014
sS'diag_M47'
p687
I1016
sS'diag_M46'
p688
I1015
sS'diag_F33'
p689
I506
sS'diag_A44'
p690
I98
sS'diag_F31'
p691
I504
sS'diag_A46'
p692
I99
sS'diag_A41'
p693
I95
sS'diag_A40'
p694
I94
sS'diag_A43'
p695
I97
sS'diag_A42'
p696
I96
sS'stay_length_55'
p697
I2229
sS'diag_F39'
p698
I509
sS'diag_F38'
p699
I508
sS'stay_length_50'
p700
I2228
sS'diag_A48'
p701
I100
sS'diag_D59'
p702
I377
sS'diag_D58'
p703
I376
sS'diag_O29'
p704
I1163
sS'diag_O28'
p705
I1162
sS'diag_D53'
p706
I372
sS'diag_D52'
p707
I371
sS'diag_D51'
p708
I370
sS'diag_D50'
p709
I369
sS'diag_D57'
p710
I375
sS'diag_D56'
p711
I374
sS'diag_D55'
p712
I373
sS'diag_O22'
p713
I1157
sS'diag_Y23'
p714
I1960
sS'diag_X57'
p715
I1894
sS'diag_X54'
p716
I1893
sS'diag_X53'
p717
I1892
sS'diag_X52'
p718
I1891
sS'diag_X51'
p719
I1890
sS'diag_X50'
p720
I1889
sS'diag_X59'
p721
I1896
sS'diag_X58'
p722
I1895
sS'diag_I06'
p723
I697
sS'diag_Y55'
p724
I1989
sS'diag_N11'
p725
I1067
sS'diag_N10'
p726
I1066
sS'diag_N13'
p727
I1069
sS'diag_N12'
p728
I1068
sS'diag_N15'
p729
I1071
sS'diag_N14'
p730
I1070
sS'diag_N17'
p731
I1073
sS'diag_N16'
p732
I1072
sS'diag_N19'
p733
I1075
sS'diag_N18'
p734
I1074
sS'diag_Z36'
p735
I2055
sS'diag_Y20'
p736
I1957
sS'complexity_ghm_Z'
p737
I59
sS'diag_Q45'
p738
I1315
sS'diag_Q44'
p739
I1314
sS'diag_V31'
p740
I1683
sS'diag_V30'
p741
I1682
sS'diag_Q41'
p742
I1311
sS'diag_Q40'
p743
I1310
sS'diag_Q43'
p744
I1313
sS'diag_Q42'
p745
I1312
sS'diag_V39'
p746
I1691
sS'diag_V38'
p747
I1690
sS'diag_Y27'
p748
I1964
sS'dpt_67'
p749
I2180
sS'dpt_66'
p750
I2179
sS'dpt_65'
p751
I2178
sS'dpt_64'
p752
I2177
sS'dpt_63'
p753
I2176
sS'dpt_62'
p754
I2175
sS'dpt_61'
p755
I2174
sS'dpt_60'
p756
I2173
sS'dpt_69'
p757
I2182
sS'dpt_68'
p758
I2181
sS'diag_H57'
p759
I666
sS'diag_H55'
p760
I665
sS'diag_H54'
p761
I664
sS'diag_H53'
p762
I663
sS'diag_H52'
p763
I662
sS'diag_H51'
p764
I661
sS'diag_H50'
p765
I660
sS'type_um_42'
p766
I2274
sS'diag_Y26'
p767
I1963
sS'diag_H59'
p768
I668
sS'diag_H58'
p769
I667
sS'diag_W09'
p770
I1761
sS'diag_W08'
p771
I1760
sS'diag_W07'
p772
I1759
sS'diag_W06'
p773
I1758
sS'diag_W05'
p774
I1757
sS'type_um_41'
p775
I2273
sS'diag_W03'
p776
I1755
sS'diag_W02'
p777
I1754
sS'diag_W01'
p778
I1753
sS'diag_W00'
p779
I1752
sS'diag_P39'
p780
I1243
sS'diag_K29'
p781
I857
sS'diag_K28'
p782
I856
sS'diag_Y25'
p783
I1962
sS'diag_P35'
p784
I1239
sS'diag_P37'
p785
I1241
sS'diag_P36'
p786
I1240
sS'diag_J84'
p787
I822
sS'diag_Y24'
p788
I1961
sS'diag_J85'
p789
I823
sS'diag_T59'
p790
I1611
sS'diag_T58'
p791
I1610
sS'diag_C49'
p792
I275
sS'diag_T53'
p793
I1605
sS'diag_T52'
p794
I1604
sS'diag_T51'
p795
I1603
sS'diag_K26'
p796
I854
sS'diag_T57'
p797
I1609
sS'diag_T56'
p798
I1608
sS'diag_T55'
p799
I1607
sS'diag_T54'
p800
I1606
sS'dpt_13'
p801
I2124
sS'diag_X00'
p802
I1840
sS'diag_X01'
p803
I1841
sS'diag_X02'
p804
I1842
sS'age_0'
p805
I0
sS'age_5'
p806
I9
sS'diag_R58'
p807
I1414
sS'age_55'
p808
I11
sS'age_50'
p809
I10
sS'diag_Z82'
p810
I2094
sS'diag_Z83'
p811
I2095
sS'diag_Z80'
p812
I2092
sS'diag_Z81'
p813
I2093
sS'diag_Z86'
p814
I2098
sS'diag_Z87'
p815
I2099
sS'diag_Z84'
p816
I2096
sS'diag_Z85'
p817
I2097
sS'complexity_ghm_4'
p818
I48
sS'diag_Z89'
p819
I2101
sS'complexity_ghm_2'
p820
I46
sS'complexity_ghm_3'
p821
I47
sS'complexity_ghm_1'
p822
I45
sS'diag_G32'
p823
I578
sS'diag_G30'
p824
I576
sS'diag_G31'
p825
I577
sS'diag_G36'
p826
I580
sS'diag_G37'
p827
I581
sS'diag_G35'
p828
I579
sS'diag_B88'
p829
I221
sS'diag_B89'
p830
I222
sS'diag_B82'
p831
I216
sS'diag_B83'
p832
I217
sS'diag_M36'
p833
I1009
sS'diag_B81'
p834
I215
sS'diag_M30'
p835
I1003
sS'diag_M31'
p836
I1004
sS'diag_M32'
p837
I1005
sS'diag_M33'
p838
I1006
sS'diag_Z60'
p839
I2079
sS'diag_Z61'
p840
I2080
sS'diag_Z62'
p841
I2081
sS'diag_Y96'
p842
I2025
sS'diag_Y97'
p843
I2026
sS'diag_Y95'
p844
I2024
sS'complexity_ghm_J'
p845
I54
sS'diag_Y90'
p846
I2022
sS'diag_Y91'
p847
I2023
sS'diag_Z64'
p848
I2083
sS'complexity_ghm_D'
p849
I52
sS'complexity_ghm_E'
p850
I53
sS'complexity_ghm_B'
p851
I50
sS'complexity_ghm_C'
p852
I51
sS'diag_Y98'
p853
I2027
sS'complexity_ghm_A'
p854
I49
sS'diag_F06'
p855
I482
sS'diag_F07'
p856
I483
sS'diag_F04'
p857
I480
sS'diag_F05'
p858
I481
sS'diag_F02'
p859
I478
sS'diag_F03'
p860
I479
sS'diag_F00'
p861
I476
sS'diag_F01'
p862
I477
sS'complexity_ghm_V'
p863
I57
sS'complexity_ghm_W'
p864
I58
sS'complexity_ghm_T'
p865
I56
sS'stay_length_40'
p866
I2225
sS'complexity_ghm_S'
p867
I55
sS'stay_length_45'
p868
I2226
sS'diag_F09'
p869
I484
sS'diag_J82'
p870
I821
sS'diag_J80'
p871
I819
sS'diag_J81'
p872
I820
sS'diag_J86'
p873
I824
sS'diag_D68'
p874
I386
sS'diag_D69'
p875
I387
sS'diag_D66'
p876
I384
sS'diag_D67'
p877
I385
sS'diag_D64'
p878
I382
sS'diag_D65'
p879
I383
sS'diag_D62'
p880
I380
sS'diag_D63'
p881
I381
sS'diag_D60'
p882
I378
sS'diag_D61'
p883
I379
sS'diag_L40'
p884
I929
sS'diag_L41'
p885
I930
sS'diag_L42'
p886
I931
sS'diag_L43'
p887
I932
sS'diag_L44'
p888
I933
sS'diag_L45'
p889
I934
sS'diag_A98'
p890
I144
sS'diag_A99'
p891
I145
sS'diag_A96'
p892
I143
sS'diag_A94'
p893
I141
sS'diag_A95'
p894
I142
sS'diag_A92'
p895
I139
sS'diag_A93'
p896
I140
sS'diag_A90'
p897
I137
sS'diag_A91'
p898
I138
sS'diag_X68'
p899
I1905
sS'diag_X69'
p900
I1906
sS'diag_X62'
p901
I1899
sS'diag_X63'
p902
I1900
sS'diag_X60'
p903
I1897
sS'diag_X61'
p904
I1898
sS'diag_X66'
p905
I1903
sS'diag_X67'
p906
I1904
sS'diag_X64'
p907
I1901
sS'diag_X65'
p908
I1902
sS'diag_E12'
p909
I413
sS'diag_E13'
p910
I414
sS'diag_E10'
p911
I411
sS'diag_E11'
p912
I412
sS'diag_E16'
p913
I417
sS'diag_Z65'
p914
I2084
sS'diag_E14'
p915
I415
sS'diag_E15'
p916
I416
sS'diag_Y30'
p917
I1967
sS'diag_N64'
p918
I1110
sS'diag_I97'
p919
I767
sS'diag_I95'
p920
I766
sS'diag_N60'
p921
I1106
sS'diag_N61'
p922
I1107
sS'diag_N62'
p923
I1108
sS'diag_N63'
p924
I1109
sS'diag_I98'
p925
I768
sS'diag_I99'
p926
I769
sS'diag_Y31'
p927
I1968
sS'diag_V06'
p928
I1660
sS'diag_Y32'
p929
I1969
sS'diag_V04'
p930
I1658
sS'diag_V05'
p931
I1659
sS'diag_V02'
p932
I1656
sS'diag_V03'
p933
I1657
sS'diag_V01'
p934
I1655
sS'diag_V09'
p935
I1661
sS'dpt_12'
p936
I2123
sS'diag_J15'
p937
I783
sS'diag_H68'
p938
I675
sS'diag_H69'
p939
I676
sS'dpt_16'
p940
I2127
sS'dpt_17'
p941
I2128
sS'dpt_14'
p942
I2125
sS'diag_J14'
p943
I782
sS'diag_H62'
p944
I671
sS'type_um_20'
p945
I2259
sS'diag_H60'
p946
I669
sS'dpt_19'
p947
I2130
sS'diag_H66'
p948
I673
sS'diag_J17'
p949
I785
sS'diag_H65'
p950
I672
sS'diag_J68'
p951
I816
sS'diag_J69'
p952
I817
sS'diag_J16'
p953
I784
sS'type_um_22'
p954
I2261
sS'diag_J60'
p955
I808
sS'diag_J11'
p956
I779
sS'diag_J62'
p957
I810
sS'diag_J63'
p958
I811
sS'diag_J64'
p959
I812
sS'diag_J65'
p960
I813
sS'diag_J66'
p961
I814
sS'diag_J10'
p962
I778
sS'diag_W32'
p963
I1784
sS'diag_W33'
p964
I1785
sS'diag_W30'
p965
I1782
sS'diag_W31'
p966
I1783
sS'diag_W36'
p967
I1788
sS'diag_J13'
p968
I781
sS'diag_W34'
p969
I1786
sS'diag_W35'
p970
I1787
sS'diag_W38'
p971
I1790
sS'diag_J12'
p972
I780
sS'diag_Y34'
p973
I1971
sS'diag_R89'
p974
I1442
sS'diag_R82'
p975
I1436
sS'diag_R83'
p976
I1437
sS'diag_R80'
p977
I1434
sS'diag_R81'
p978
I1435
sS'diag_R86'
p979
I1440
sS'diag_R87'
p980
I1441
sS'diag_R84'
p981
I1438
sS'diag_R85'
p982
I1439
sS'diag_V22'
p983
I1674
sS'diag_Y36'
p984
I1973
sS'diag_T68'
p985
I1620
sS'diag_T69'
p986
I1621
sS'diag_T66'
p987
I1618
sS'diag_T67'
p988
I1619
sS'diag_T64'
p989
I1616
sS'diag_T65'
p990
I1617
sS'diag_T62'
p991
I1614
sS'diag_T63'
p992
I1615
sS'diag_T60'
p993
I1612
sS'diag_T61'
p994
I1613
sS'diag_Q98'
p995
I1359
sS'diag_Q99'
p996
I1360
sS'diag_Q96'
p997
I1357
sS'diag_Q97'
p998
I1358
sS'diag_Q95'
p999
I1356
sS'diag_Q92'
p1000
I1354
sS'diag_Q93'
p1001
I1355
sS'diag_Q90'
p1002
I1352
sS'diag_Q91'
p1003
I1353
sS'diag_F16'
p1004
I491
sS'diag_M01'
p1005
I979
sS'age_60'
p1006
I12
sS'age_65'
p1007
I13
sS'diag_Z95'
p1008
I2107
sS'diag_Z94'
p1009
I2106
sS'diag_M03'
p1010
I981
sS'diag_Z96'
p1011
I2108
sS'diag_Z91'
p1012
I2103
sS'diag_Z63'
p1013
I2082
sS'diag_Z93'
p1014
I2105
sS'diag_Z92'
p1015
I2104
sS'diag_Z99'
p1016
I2111
sS'diag_Z98'
p1017
I2110
sS'diag_G25'
p1018
I574
sS'diag_G24'
p1019
I573
sS'diag_G26'
p1020
I575
sS'diag_G21'
p1021
I570
sS'diag_G20'
p1022
I569
sS'diag_G23'
p1023
I572
sS'diag_G22'
p1024
I571
sS'dpt_10'
p1025
I2121
sS'diag_M02'
p1026
I980
sS'dpt_11'
p1027
I2122
sS'diag_B99'
p1028
I231
sS'diag_B98'
p1029
I230
sS'diag_B95'
p1030
I227
sS'diag_B94'
p1031
I226
sS'diag_M25'
p1032
I1002
sS'dpt_15'
p1033
I2126
sS'diag_M23'
p1034
I1000
sS'diag_M22'
p1035
I999
sS'diag_M21'
p1036
I998
sS'diag_M20'
p1037
I997
sS'diag_Y89'
p1038
I2021
sS'diag_Y88'
p1039
I2020
sS'diag_Y81'
p1040
I2013
sS'diag_Y80'
p1041
I2012
sS'diag_Y83'
p1042
I2015
sS'diag_Y82'
p1043
I2014
sS'diag_Y85'
p1044
I2017
sS'dpt_18'
p1045
I2129
sS'diag_Y87'
p1046
I2019
sS'diag_Y86'
p1047
I2018
sS'diag_F19'
p1048
I494
sS'diag_F18'
p1049
I493
sS'diag_H61'
p1050
I670
sS'diag_F11'
p1051
I486
sS'diag_F10'
p1052
I485
sS'diag_F13'
p1053
I488
sS'diag_F12'
p1054
I487
sS'diag_F15'
p1055
I490
sS'diag_F14'
p1056
I489
sS'diag_F17'
p1057
I492
sS'diag_H67'
p1058
I674
sS'diag_J95'
p1059
I830
sS'diag_J94'
p1060
I829
sS'diag_D73'
p1061
I391
sS'diag_J96'
p1062
I831
sS'diag_J91'
p1063
I826
sS'diag_J90'
p1064
I825
sS'diag_J93'
p1065
I828
sS'diag_J92'
p1066
I827
sS'diag_J99'
p1067
I833
sS'diag_J98'
p1068
I832
sS'diag_L53'
p1069
I938
sS'diag_L52'
p1070
I937
sS'diag_L51'
p1071
I936
sS'diag_L50'
p1072
I935
sS'diag_L57'
p1073
I942
sS'diag_L56'
p1074
I941
sS'diag_L55'
p1075
I940
sS'diag_L54'
p1076
I939
sS'diag_A89'
p1077
I136
sS'cmd_27'
p1078
I42
sS'diag_L59'
p1079
I944
sS'diag_L58'
p1080
I943
sS'diag_X79'
p1081
I1916
sS'diag_I07'
p1082
I698
sS'diag_X75'
p1083
I1912
sS'diag_X74'
p1084
I1911
sS'diag_X77'
p1085
I1914
sS'cmd_24'
p1086
I39
sS'diag_X71'
p1087
I1908
sS'diag_X70'
p1088
I1907
sS'diag_X73'
p1089
I1910
sS'diag_X72'
p1090
I1909
sS'diag_J45'
p1091
I805
sS'diag_J61'
p1092
I809
sS'diag_E05'
p1093
I408
sS'diag_E04'
p1094
I407
sS'diag_E07'
p1095
I410
sS'diag_E06'
p1096
I409
sS'diag_E01'
p1097
I404
sS'diag_E00'
p1098
I403
sS'diag_E03'
p1099
I406
sS'diag_E02'
p1100
I405
sS'diag_I89'
p1101
I765
sS'diag_I88'
p1102
I764
sS'diag_I81'
p1103
I757
sS'diag_I80'
p1104
I756
sS'diag_I83'
p1105
I759
sS'diag_I82'
p1106
I758
sS'diag_I85'
p1107
I761
sS'diag_I84'
p1108
I760
sS'diag_I87'
p1109
I763
sS'diag_I86'
p1110
I762
sS'diag_N77'
p1111
I1118
sS'diag_N76'
p1112
I1117
sS'diag_N75'
p1113
I1116
sS'diag_N74'
p1114
I1115
sS'diag_N73'
p1115
I1114
sS'diag_N72'
p1116
I1113
sS'diag_N71'
p1117
I1112
sS'diag_N70'
p1118
I1111
sS'diag_J67'
p1119
I815
sS'diag_W37'
p1120
I1789
sS'dpt_01'
p1121
I2112
sS'dpt_03'
p1122
I2114
sS'dpt_02'
p1123
I2113
sS'dpt_05'
p1124
I2116
sS'dpt_04'
p1125
I2115
sS'dpt_07'
p1126
I2118
sS'dpt_06'
p1127
I2117
sS'diag_H75'
p1128
I682
sS'diag_H74'
p1129
I681
sS'diag_H71'
p1130
I678
sS'diag_H70'
p1131
I677
sS'diag_H73'
p1132
I680
sS'diag_H72'
p1133
I679
sS'diag_W39'
p1134
I1791
sS'diag_J70'
p1135
I818
sS'diag_W25'
p1136
I1777
sS'diag_W24'
p1137
I1776
sS'diag_W27'
p1138
I1779
sS'diag_W26'
p1139
I1778
sS'diag_W21'
p1140
I1773
sS'diag_W20'
p1141
I1772
sS'diag_W23'
p1142
I1775
sS'diag_W22'
p1143
I1774
sS'diag_W29'
p1144
I1781
sS'diag_W28'
p1145
I1780
sS'diag_P59'
p1146
I1253
sS'diag_P58'
p1147
I1252
sS'diag_P57'
p1148
I1251
sS'diag_P56'
p1149
I1250
sS'diag_P55'
p1150
I1249
sS'diag_P54'
p1151
I1248
sS'diag_P53'
p1152
I1247
sS'diag_P52'
p1153
I1246
sS'diag_P51'
p1154
I1245
sS'diag_P50'
p1155
I1244
sS'diag_R99'
p1156
I1451
sS'diag_R98'
p1157
I1450
sS'diag_R95'
p1158
I1448
sS'diag_R94'
p1159
I1447
sS'diag_R96'
p1160
I1449
sS'diag_R91'
p1161
I1444
sS'diag_R90'
p1162
I1443
sS'diag_R93'
p1163
I1446
sS'diag_R92'
p1164
I1445
sS'diag_A52'
p1165
I104
sS'diag_A53'
p1166
I105
sS'diag_A50'
p1167
I102
sS'diag_V19'
p1168
I1671
sS'diag_V18'
p1169
I1670
sS'diag_A51'
p1170
I103
sS'diag_V11'
p1171
I1663
sS'diag_A56'
p1172
I108
sS'diag_V13'
p1173
I1665
sS'diag_V12'
p1174
I1664
sS'diag_V15'
p1175
I1667
sS'diag_V14'
p1176
I1666
sS'diag_V17'
p1177
I1669
sS'diag_A57'
p1178
I109
sS'diag_T71'
p1179
I1623
sS'diag_T70'
p1180
I1622
sS'diag_T73'
p1181
I1624
sS'type_um_02A'
p1182
I2239
sS'diag_T74'
p1183
I1625
sS'type_um_02B'
p1184
I2240
sS'diag_T79'
p1185
I1628
sS'diag_T78'
p1186
I1627
sS'type_um_37'
p1187
I2271
sS'diag_Q81'
p1188
I1344
sS'diag_Q80'
p1189
I1343
sS'diag_Q83'
p1190
I1346
sS'diag_Q82'
p1191
I1345
sS'diag_Q85'
p1192
I1348
sS'diag_Q84'
p1193
I1347
sS'diag_Q87'
p1194
I1350
sS'diag_Q86'
p1195
I1349
sS'diag_Q89'
p1196
I1351
sS'diag_V93'
p1197
I1745
sS'diag_V92'
p1198
I1744
sS'diag_Z39'
p1199
I2058
sS'diag_V95'
p1200
I1747
sS'diag_Z38'
p1201
I2057
sS'diag_V94'
p1202
I1746
sS'diag_V97'
p1203
I1749
sS'diag_V96'
p1204
I1748
sS'diag_O32'
p1205
I1166
sS'diag_O33'
p1206
I1167
sS'diag_O30'
p1207
I1164
sS'diag_O31'
p1208
I1165
sS'diag_O36'
p1209
I1170
sS'diag_O34'
p1210
I1168
sS'diag_O35'
p1211
I1169
sS'age_75'
p1212
I15
sS'age_70'
p1213
I14
sS'diag_B60'
p1214
I197
sS'diag_M13'
p1215
I990
sS'diag_M10'
p1216
I987
sS'diag_M11'
p1217
I988
sS'diag_B64'
p1218
I198
sS'diag_B65'
p1219
I199
sS'diag_B66'
p1220
I200
sS'diag_B67'
p1221
I201
sS'diag_B68'
p1222
I202
sS'diag_B69'
p1223
I203
sS'diag_M18'
p1224
I995
sS'diag_M19'
p1225
I996
sS'diag_F68'
p1226
I531
sS'diag_F69'
p1227
I532
sS'diag_F64'
p1228
I528
sS'diag_F65'
p1229
I529
sS'diag_F66'
p1230
I530
sS'diag_F60'
p1231
I524
sS'diag_F61'
p1232
I525
sS'diag_F62'
p1233
I526
sS'diag_F63'
p1234
I527
sS'diag_D04'
p1235
I325
sS'diag_D05'
p1236
I326
sS'diag_D06'
p1237
I327
sS'diag_D07'
p1238
I328
sS'diag_D00'
p1239
I321
sS'diag_D01'
p1240
I322
sS'diag_D02'
p1241
I323
sS'diag_D03'
p1242
I324
sS'diag_D09'
p1243
I329
sS'diag_L66'
p1244
I950
sS'diag_L67'
p1245
I951
sS'diag_L64'
p1246
I948
sS'diag_L65'
p1247
I949
sS'diag_L62'
p1248
I946
sS'diag_L63'
p1249
I947
sS'diag_L60'
p1250
I945
sS'diag_L68'
p1251
I952
sS'diag_X80'
p1252
I1917
sS'diag_X81'
p1253
I1918
sS'diag_X82'
p1254
I1919
sS'diag_X83'
p1255
I1920
sS'diag_X84'
p1256
I1921
sS'diag_X85'
p1257
I1922
sS'diag_X86'
p1258
I1923
sS'diag_X87'
p1259
I1924
sS'diag_X88'
p1260
I1925
sS'diag_X89'
p1261
I1926
sS'diag_Y28'
p1262
I1965
sS'diag_Z48'
p1263
I2067
sS'diag_Z49'
p1264
I2068
sS'diag_Z46'
p1265
I2065
sS'diag_Z47'
p1266
I2066
sS'diag_Z44'
p1267
I2063
sS'diag_Z45'
p1268
I2064
sS'diag_Z42'
p1269
I2061
sS'diag_Z43'
p1270
I2062
sS'diag_Z40'
p1271
I2059
sS'diag_Z41'
p1272
I2060
sS'diag_C18'
p1273
I250
sS'diag_C19'
p1274
I251
sS'diag_N48'
p1275
I1102
sS'diag_N49'
p1276
I1103
sS'diag_C10'
p1277
I242
sS'diag_C11'
p1278
I243
sS'diag_C12'
p1279
I244
sS'diag_C13'
p1280
I245
sS'diag_C14'
p1281
I246
sS'diag_C15'
p1282
I247
sS'diag_C16'
p1283
I248
sS'diag_C17'
p1284
I249
sS'diag_O87'
p1285
I1203
sS'diag_O86'
p1286
I1202
sS'diag_O85'
p1287
I1201
sS'diag_O84'
p1288
I1200
sS'diag_O83'
p1289
I1199
sS'diag_O82'
p1290
I1198
sS'diag_S44'
p1291
I1496
sS'diag_O81'
p1292
I1197
sS'diag_O80'
p1293
I1196
sS'diag_H80'
p1294
I683
sS'diag_H81'
p1295
I684
sS'diag_H82'
p1296
I685
sS'diag_H83'
p1297
I686
sS'dpt_38'
p1298
I2151
sS'dpt_39'
p1299
I2152
sS'dpt_34'
p1300
I2147
sS'dpt_35'
p1301
I2148
sS'dpt_36'
p1302
I2149
sS'dpt_37'
p1303
I2150
sS'dpt_30'
p1304
I2143
sS'dpt_31'
p1305
I2144
sS'dpt_32'
p1306
I2145
sS'dpt_33'
p1307
I2146
sS'type_um_03B'
p1308
I2242
sS'diag_J47'
p1309
I807
sS'diag_J44'
p1310
I804
sS'type_um_03A'
p1311
I2241
sS'diag_J42'
p1312
I802
sS'diag_J43'
p1313
I803
sS'diag_J40'
p1314
I800
sS'diag_J41'
p1315
I801
sS'diag_S48'
p1316
I1500
sS'diag_P60'
p1317
I1254
sS'diag_P61'
p1318
I1255
sS'diag_R60'
p1319
I1416
sS'diag_R61'
p1320
I1417
sS'diag_R62'
p1321
I1418
sS'diag_R63'
p1322
I1419
sS'diag_R64'
p1323
I1420
sS'diag_R65'
p1324
I1421
sS'diag_R68'
p1325
I1422
sS'diag_R69'
p1326
I1423
sS'type_um_14B'
p1327
I2254
sS'type_um_14A'
p1328
I2253
sS'diag_V68'
p1329
I1720
sS'diag_V69'
p1330
I1721
sS'diag_V64'
p1331
I1716
sS'diag_V65'
p1332
I1717
sS'diag_V66'
p1333
I1718
sS'diag_V67'
p1334
I1719
sS'diag_V60'
p1335
I1712
sS'diag_V61'
p1336
I1713
sS'diag_V62'
p1337
I1714
sS'diag_V63'
p1338
I1715
sS'diag_B73'
p1339
I207
sS'diag_M07'
p1340
I984
sS'diag_T04'
p1341
I1556
sS'diag_T05'
p1342
I1557
sS'diag_T06'
p1343
I1558
sS'diag_B70'
p1344
I204
sS'diag_T00'
p1345
I1552
sS'diag_T01'
p1346
I1553
sS'diag_T02'
p1347
I1554
sS'diag_T03'
p1348
I1555
sS'type_um_06'
p1349
I2245
sS'diag_T08'
p1350
I1560
sS'diag_T09'
p1351
I1561
sS'diag_B76'
p1352
I210
sS'type_um_04'
p1353
I2243
sS'type_um_05'
p1354
I2244
sS'type_um_08'
p1355
I2248
sS'diag_S18'
p1356
I1470
sS'diag_S19'
p1357
I1471
sS'diag_S10'
p1358
I1462
sS'diag_S11'
p1359
I1463
sS'diag_S12'
p1360
I1464
sS'diag_S13'
p1361
I1465
sS'diag_S14'
p1362
I1466
sS'diag_S15'
p1363
I1467
sS'diag_S16'
p1364
I1468
sS'diag_S17'
p1365
I1469
sS'diag_P80'
p1366
I1264
sS'diag_P81'
p1367
I1265
sS'diag_P83'
p1368
I1266
sS'diag_X33'
p1369
I1872
sS'diag_D76'
p1370
I394
sS'diag_M05'
p1371
I982
sS'diag_B72'
p1372
I206
sS'diag_B71'
p1373
I205
sS'diag_M06'
p1374
I983
sS'diag_B77'
p1375
I211
sS'diag_M00'
p1376
I978
sS'diag_B75'
p1377
I209
sS'diag_B74'
p1378
I208
sS'diag_B79'
p1379
I213
sS'diag_B78'
p1380
I212
sS'diag_M09'
p1381
I986
sS'diag_M08'
p1382
I985
sS'diag_V23'
p1383
I1675
sS'diag_V24'
p1384
I1676
sS'diag_V26'
p1385
I1678
sS'diag_F79'
p1386
I538
sS'diag_F78'
p1387
I537
sS'diag_V27'
p1388
I1679
sS'diag_F73'
p1389
I536
sS'diag_F72'
p1390
I535
sS'diag_F71'
p1391
I534
sS'diag_F70'
p1392
I533
sS'type_um_73'
p1393
I2285
sS'type_um_72'
p1394
I2284
sS'diag_D17'
p1395
I337
sS'diag_D16'
p1396
I336
sS'diag_D15'
p1397
I335
sS'diag_D14'
p1398
I334
sS'diag_D13'
p1399
I333
sS'type_um_71'
p1400
I2283
sS'diag_D11'
p1401
I331
sS'diag_D10'
p1402
I330
sS'diag_L71'
p1403
I954
sS'diag_L70'
p1404
I953
sS'diag_L73'
p1405
I956
sS'type_um_70'
p1406
I2282
sS'diag_L75'
p1407
I958
sS'diag_L74'
p1408
I957
sS'diag_D19'
p1409
I339
sS'diag_D18'
p1410
I338
sS'diag_X93'
p1411
I1930
sS'diag_X92'
p1412
I1929
sS'diag_X91'
p1413
I1928
sS'diag_X90'
p1414
I1927
sS'diag_X97'
p1415
I1934
sS'diag_X96'
p1416
I1933
sS'diag_X95'
p1417
I1932
sS'diag_X94'
p1418
I1931
sS'diag_X99'
p1419
I1936
sS'diag_X98'
p1420
I1935
sS'diag_E43'
p1421
I436
sS'diag_Z51'
p1422
I2070
sS'diag_Z50'
p1423
I2069
sS'diag_Z53'
p1424
I2072
sS'diag_W84'
p1425
I1828
sS'diag_Z55'
p1426
I2074
sS'diag_Z54'
p1427
I2073
sS'diag_Z57'
p1428
I2076
sS'diag_Z56'
p1429
I2075
sS'diag_Z59'
p1430
I2078
sS'diag_Z58'
p1431
I2077
sS'diag_C09'
p1432
I241
sS'diag_C08'
p1433
I240
sS'diag_C03'
p1434
I235
sS'diag_C02'
p1435
I234
sS'diag_C01'
p1436
I233
sS'diag_C00'
p1437
I232
sS'diag_C07'
p1438
I239
sS'diag_N50'
p1439
I1104
sS'diag_C05'
p1440
I237
sS'diag_C04'
p1441
I236
sS'diag_D12'
p1442
I332
sS'diag_K74'
p1443
I891
sS'dpt_2B'
p1444
I2142
sS'dpt_2A'
p1445
I2141
sS'diag_E59'
p1446
I448
sS'diag_W88'
p1447
I1832
sS'diag_H44'
p1448
I654
sS'diag_L72'
p1449
I955
sS'diag_M24'
p1450
I1001
sS'diag_H45'
p1451
I655
sS'diag_E44'
p1452
I437
sS'diag_H93'
p1453
I690
sS'diag_H92'
p1454
I689
sS'dpt_29'
p1455
I2140
sS'dpt_28'
p1456
I2139
sS'diag_H95'
p1457
I692
sS'diag_H94'
p1458
I691
sS'dpt_23'
p1459
I2134
sS'dpt_22'
p1460
I2133
sS'dpt_21'
p1461
I2132
sS'dpt_20'
p1462
I2131
sS'dpt_27'
p1463
I2138
sS'dpt_26'
p1464
I2137
sS'dpt_25'
p1465
I2136
sS'dpt_24'
p1466
I2135
sS'diag_P75'
p1467
I1260
sS'diag_P74'
p1468
I1259
sS'diag_P77'
p1469
I1262
sS'diag_P76'
p1470
I1261
sS'diag_P71'
p1471
I1257
sS'diag_P70'
p1472
I1256
sS'diag_P72'
p1473
I1258
sS'diag_H48'
p1474
I658
sS'diag_P78'
p1475
I1263
sS'diag_H49'
p1476
I659
sS'diag_R73'
p1477
I1427
sS'diag_R72'
p1478
I1426
sS'diag_R71'
p1479
I1425
sS'diag_R70'
p1480
I1424
sS'diag_R77'
p1481
I1431
sS'diag_R76'
p1482
I1430
sS'diag_R75'
p1483
I1429
sS'diag_R74'
p1484
I1428
sS'diag_R79'
p1485
I1433
sS'diag_R78'
p1486
I1432
sS'diag_V55'
p1487
I1707
sS'diag_V54'
p1488
I1706
sS'diag_V79'
p1489
I1731
sS'diag_V78'
p1490
I1730
sS'diag_V77'
p1491
I1729
sS'diag_V76'
p1492
I1728
sS'diag_V75'
p1493
I1727
sS'diag_V74'
p1494
I1726
sS'diag_V73'
p1495
I1725
sS'diag_V72'
p1496
I1724
sS'diag_V71'
p1497
I1723
sS'diag_V70'
p1498
I1722
sS'diag_V52'
p1499
I1704
sS'diag_T17'
p1500
I1569
sS'diag_T16'
p1501
I1568
sS'diag_T15'
p1502
I1567
sS'diag_T14'
p1503
I1566
sS'diag_T13'
p1504
I1565
sS'diag_T12'
p1505
I1564
sS'diag_T11'
p1506
I1563
sS'diag_T10'
p1507
I1562
sS'diag_T19'
p1508
I1571
sS'diag_T18'
p1509
I1570
sS'diag_V59'
p1510
I1711
sS'type_um_01A'
p1511
I2237
sS'diag_V58'
p1512
I1710
sS'diag_Y52'
p1513
I1986
sS'diag_Y50'
p1514
I1984
sS'diag_Y56'
p1515
I1990
sS'type_um_01B'
p1516
I2238
sS'sex'
p1517
I2213
sS'diag_S09'
p1518
I1461
sS'diag_S08'
p1519
I1460
sS'diag_Y54'
p1520
I1988
sS'diag_S03'
p1521
I1455
sS'diag_S02'
p1522
I1454
sS'diag_S01'
p1523
I1453
sS'diag_S00'
p1524
I1452
sS'diag_S07'
p1525
I1459
sS'diag_S06'
p1526
I1458
sS'diag_S05'
p1527
I1457
sS'diag_S04'
p1528
I1456
sS'diag_P93'
p1529
I1270
sS'diag_P92'
p1530
I1269
sS'diag_P91'
p1531
I1268
sS'diag_P90'
p1532
I1267
sS'diag_P96'
p1533
I1273
sS'diag_P95'
p1534
I1272
sS'diag_P94'
p1535
I1271
sS'diag_Z52'
p1536
I2071
sS'diag_T34'
p1537
I1586
sS'diag_T32'
p1538
I1584
sS'age_10'
p1539
I1
sS'age_15'
p1540
I2
sS'diag_F94'
p1541
I550
sS'diag_G94'
p1542
I616
sS'diag_G95'
p1543
I617
sS'diag_G96'
p1544
I618
sS'diag_G97'
p1545
I619
sS'diag_B42'
p1546
I179
sS'diag_B43'
p1547
I180
sS'diag_G92'
p1548
I614
sS'diag_G93'
p1549
I615
sS'type_um_19'
p1550
I2258
sS'type_um_18'
p1551
I2257
sS'diag_G98'
p1552
I620
sS'diag_G99'
p1553
I621
sS'diag_B48'
p1554
I185
sS'diag_C06'
p1555
I238
sS'diag_F42'
p1556
I512
sS'diag_F43'
p1557
I513
sS'diag_F40'
p1558
I510
sS'diag_F41'
p1559
I511
sS'diag_F44'
p1560
I514
sS'diag_F45'
p1561
I515
sS'diag_F48'
p1562
I516
sS'diag_L08'
p1563
I912
sS'diag_L04'
p1564
I910
sS'diag_L05'
p1565
I911
sS'diag_L00'
p1566
I906
sS'diag_L01'
p1567
I907
sS'diag_L02'
p1568
I908
sS'diag_L03'
p1569
I909
sS'diag_Z24'
p1570
I2043
sS'diag_Z25'
p1571
I2044
sS'diag_Z26'
p1572
I2045
sS'diag_Z27'
p1573
I2046
sS'diag_Z20'
p1574
I2039
sS'diag_Z21'
p1575
I2040
sS'diag_Z22'
p1576
I2041
sS'diag_Z23'
p1577
I2042
sS'diag_Z28'
p1578
I2047
sS'diag_Z29'
p1579
I2048
sS'diag_C38'
p1580
I265
sS'diag_C39'
p1581
I266
sS'diag_C37'
p1582
I264
sS'diag_C34'
p1583
I263
sS'diag_C32'
p1584
I261
sS'diag_C33'
p1585
I262
sS'diag_C30'
p1586
I259
sS'diag_C31'
p1587
I260
sS'diag_K10'
p1588
I844
sS'diag_K11'
p1589
I845
sS'diag_K12'
p1590
I846
sS'diag_K13'
p1591
I847
sS'diag_K14'
p1592
I848
sS'diag_Y22'
p1593
I1959
sS'diag_Z97'
p1594
I2109
sS'diag_D28'
p1595
I348
sS'diag_D29'
p1596
I349
sS'diag_O98'
p1597
I1213
sS'diag_O99'
p1598
I1214
sS'diag_D22'
p1599
I342
sS'diag_D23'
p1600
I343
sS'diag_D20'
p1601
I340
sS'diag_D21'
p1602
I341
sS'diag_D26'
p1603
I346
sS'diag_D27'
p1604
I347
sS'diag_D24'
p1605
I344
sS'diag_D25'
p1606
I345
sS'diag_J20'
p1607
I787
sS'diag_J21'
p1608
I788
sS'diag_J22'
p1609
I789
sS'diag_X28'
p1610
I1867
sS'diag_X29'
p1611
I1868
sS'diag_R46'
p1612
I1402
sS'diag_R47'
p1613
I1403
sS'diag_R44'
p1614
I1400
sS'diag_R45'
p1615
I1401
sS'diag_R42'
p1616
I1398
sS'diag_R43'
p1617
I1399
sS'diag_R40'
p1618
I1396
sS'diag_R41'
p1619
I1397
sS'diag_W99'
p1620
I1839
sS'diag_R48'
p1621
I1404
sS'diag_R49'
p1622
I1405
sS'diag_I38'
p1623
I723
sS'diag_I39'
p1624
I724
sS'diag_I30'
p1625
I715
sS'diag_I31'
p1626
I716
sS'diag_I32'
p1627
I717
sS'diag_I33'
p1628
I718
sS'diag_I34'
p1629
I719
sS'diag_I35'
p1630
I720
sS'diag_I36'
p1631
I721
sS'diag_I37'
p1632
I722
sS'diag_V42'
p1633
I1694
sS'diag_V43'
p1634
I1695
sS'cmd_18'
p1635
I33
sS'cmd_19'
p1636
I34
sS'diag_V46'
p1637
I1698
sS'diag_V47'
p1638
I1699
sS'diag_V44'
p1639
I1696
sS'diag_V45'
p1640
I1697
sS'cmd_12'
p1641
I27
sS'cmd_13'
p1642
I28
sS'cmd_10'
p1643
I25
sS'cmd_11'
p1644
I26
sS'cmd_16'
p1645
I31
sS'cmd_17'
p1646
I32
sS'cmd_14'
p1647
I29
sS'cmd_15'
p1648
I30
sS'diag_T28'
p1649
I1580
sS'diag_T29'
p1650
I1581
sS'diag_T22'
p1651
I1574
sS'diag_T23'
p1652
I1575
sS'diag_T20'
p1653
I1572
sS'diag_S26'
p1654
I1478
sS'diag_T26'
p1655
I1578
sS'diag_T27'
p1656
I1579
sS'diag_T24'
p1657
I1576
sS'diag_T25'
p1658
I1577
sS'diag_W46'
p1659
I1798
sS'diag_S38'
p1660
I1490
sS'diag_S39'
p1661
I1491
sS'diag_S36'
p1662
I1488
sS'diag_S37'
p1663
I1489
sS'diag_S34'
p1664
I1486
sS'diag_S35'
p1665
I1487
sS'diag_S32'
p1666
I1484
sS'diag_S33'
p1667
I1485
sS'diag_S30'
p1668
I1482
sS'diag_S31'
p1669
I1483
sS'diag_H91'
p1670
I688
sS'diag_H90'
p1671
I687
sS'diag_N20'
p1672
I1076
sS'diag_G54'
p1673
I593
sS'diag_I50'
p1674
I735
sS'diag_I51'
p1675
I736
sS'age_25'
p1676
I4
sS'age_20'
p1677
I3
sS'diag_B97'
p1678
I229
sS'diag_B96'
p1679
I228
sS'diag_B91'
p1680
I224
sS'diag_V20'
p1681
I1672
sS'diag_B90'
p1682
I223
sS'diag_B92'
p1683
I225
sS'diag_V21'
p1684
I1673
sS'diag_M48'
p1685
I1017
sS'type_um_26'
p1686
I2263
sS'type_um_27'
p1687
I2264
sS'diag_G83'
p1688
I611
sS'diag_G82'
p1689
I610
sS'diag_G81'
p1690
I609
sS'diag_G80'
p1691
I608
sS'diag_F88'
p1692
I544
sS'type_um_28'
p1693
I2265
sS'type_um_29'
p1694
I2266
sS'diag_F55'
p1695
I522
sS'diag_F54'
p1696
I521
sS'diag_F51'
p1697
I518
sS'diag_F50'
p1698
I517
sS'diag_F53'
p1699
I520
sS'diag_F52'
p1700
I519
sS'diag_F89'
p1701
I545
sS'diag_F59'
p1702
I523
sS'diag_Y84'
p1703
I2016
sS'diag_L14'
p1704
I917
sS'diag_L13'
p1705
I916
sS'diag_L12'
p1706
I915
sS'diag_L11'
p1707
I914
sS'diag_L10'
p1708
I913
sS'diag_B59'
p1709
I196
sS'diag_B58'
p1710
I195
sS'diag_Z35'
p1711
I2054
sS'diag_Z34'
p1712
I2053
sS'diag_Z33'
p1713
I2052
sS'diag_Z32'
p1714
I2051
sS'diag_Z31'
p1715
I2050
sS'diag_Z30'
p1716
I2049
sS'diag_B51'
p1717
I188
sS'diag_B50'
p1718
I187
sS'diag_B53'
p1719
I190
sS'diag_B52'
p1720
I189
sS'diag_B55'
p1721
I192
sS'diag_B54'
p1722
I191
sS'diag_B57'
p1723
I194
sS'diag_B56'
p1724
I193
sS'diag_C21'
p1725
I253
sS'diag_C20'
p1726
I252
sS'diag_C23'
p1727
I255
sS'diag_C22'
p1728
I254
sS'diag_C25'
p1729
I257
sS'diag_C24'
p1730
I256
sS'diag_C26'
p1731
I258
sS'diag_K03'
p1732
I837
sS'diag_K02'
p1733
I836
sS'diag_K01'
p1734
I835
sS'diag_K00'
p1735
I834
sS'diag_K07'
p1736
I841
sS'diag_K06'
p1737
I840
sS'diag_K05'
p1738
I839
sS'diag_K04'
p1739
I838
sS'diag_K09'
p1740
I843
sS'diag_K08'
p1741
I842
sS'diag_B02'
p1742
I148
sS'diag_B03'
p1743
I149
sS'diag_B00'
p1744
I146
sS'diag_Y29'
p1745
I1966
sS'diag_B01'
p1746
I147
sS'diag_D39'
p1747
I359
sS'diag_D38'
p1748
I358
sS'diag_O89'
p1749
I1205
sS'diag_O88'
p1750
I1204
sS'diag_D35'
p1751
I355
sS'diag_D34'
p1752
I354
sS'diag_D37'
p1753
I357
sS'diag_D36'
p1754
I356
sS'diag_D31'
p1755
I351
sS'diag_D30'
p1756
I350
sS'diag_D33'
p1757
I353
sS'diag_D32'
p1758
I352
sS'diag_B04'
p1759
I150
sS'diag_B05'
p1760
I151
sS'diag_J37'
p1761
I797
sS'diag_J36'
p1762
I796
sS'diag_J35'
p1763
I795
sS'diag_J34'
p1764
I794
sS'diag_J33'
p1765
I793
sS'diag_J32'
p1766
I792
sS'diag_J31'
p1767
I791
sS'diag_J30'
p1768
I790
sS'diag_J39'
p1769
I799
sS'diag_J38'
p1770
I798
sS'diag_Z37'
p1771
I2056
sS'diag_R59'
p1772
I1415
sS'diag_D71'
p1773
I389
sS'diag_D70'
p1774
I388
sS'diag_R51'
p1775
I1407
sS'diag_R50'
p1776
I1406
sS'diag_R53'
p1777
I1409
sS'diag_R52'
p1778
I1408
sS'diag_R55'
p1779
I1411
sS'diag_R54'
p1780
I1410
sS'diag_R57'
p1781
I1413
sS'diag_R56'
p1782
I1412
sS'diag_W87'
p1783
I1831
sS'diag_W86'
p1784
I1830
sS'diag_W85'
p1785
I1829
sS'diag_D72'
p1786
I390
sS'diag_W83'
p1787
I1827
sS'diag_W81'
p1788
I1826
sS'diag_W80'
p1789
I1825
sS'diag_D75'
p1790
I393
sS'diag_W89'
p1791
I1833
sS'diag_D74'
p1792
I392
sS'diag_I28'
p1793
I714
sS'diag_D77'
p1794
I395
sS'diag_I23'
p1795
I709
sS'diag_I22'
p1796
I708
sS'diag_I21'
p1797
I707
sS'diag_I20'
p1798
I706
sS'diag_I27'
p1799
I713
sS'diag_I26'
p1800
I712
sS'diag_I25'
p1801
I711
sS'diag_I24'
p1802
I710
sS'cmd_09'
p1803
I24
sS'cmd_08'
p1804
I23
sS'diag_V57'
p1805
I1709
sS'diag_V56'
p1806
I1708
sS'diag_V51'
p1807
I1703
sS'diag_V50'
p1808
I1702
sS'diag_V53'
p1809
I1705
sS'diag_E71'
p1810
I458
sS'cmd_01'
p1811
I16
sS'cmd_03'
p1812
I18
sS'cmd_02'
p1813
I17
sS'cmd_05'
p1814
I20
sS'cmd_04'
p1815
I19
sS'cmd_07'
p1816
I22
sS'cmd_06'
p1817
I21
sS'diag_E73'
p1818
I460
sS'diag_T39'
p1819
I1591
sS'diag_T38'
p1820
I1590
sS'diag_T35'
p1821
I1587
sS'diag_E74'
p1822
I461
sS'diag_T37'
p1823
I1589
sS'diag_T36'
p1824
I1588
sS'diag_T31'
p1825
I1583
sS'diag_T30'
p1826
I1582
sS'diag_T33'
p1827
I1585
sS'diag_E75'
p1828
I462
sS'diag_E76'
p1829
I463
sS'diag_A81'
p1830
I128
sS'dpt_58'
p1831
I2171
sS'diag_A80'
p1832
I127
sS'diag_A83'
p1833
I130
sS'diag_H26'
p1834
I641
sS'diag_A82'
p1835
I129
sS'dpt_57'
p1836
I2170
sS'diag_A85'
p1837
I132
sS'diag_A84'
p1838
I131
sS'diag_H25'
p1839
I640
sS'diag_A87'
p1840
I134
sS'dpt_52'
p1841
I2165
sS'diag_A86'
p1842
I133
sS'private'
p1843
I2212
sS'diag_S21'
p1844
I1473
sS'diag_S20'
p1845
I1472
sS'diag_S23'
p1846
I1475
sS'diag_S22'
p1847
I1474
sS'diag_S25'
p1848
I1477
sS'dpt_50'
p1849
I2163
sS'diag_S27'
p1850
I1479
sS'diag_A88'
p1851
I135
sS'diag_S29'
p1852
I1481
sS'diag_S28'
p1853
I1480
sS'dpt_51'
p1854
I2164
sS'diag_X78'
p1855
I1915
sS'age_30'
p1856
I5
sS'age_35'
p1857
I6
sS'diag_X76'
p1858
I1913
sS'diag_Z73'
p1859
I2088
sS'diag_Z72'
p1860
I2087
sS'diag_Z71'
p1861
I2086
sS'diag_Z70'
p1862
I2085
sS'diag_Z76'
p1863
I2091
sS'diag_Z75'
p1864
I2090
sS'diag_Z74'
p1865
I2089
sS'diag_A30'
p1866
I84
sS'diag_A31'
p1867
I85
sS'diag_A32'
p1868
I86
sS'diag_A33'
p1869
I87
sS'diag_A34'
p1870
I88
sS'diag_A35'
p1871
I89
sS'diag_A36'
p1872
I90
sS'diag_A37'
p1873
I91
sS'diag_A38'
p1874
I92
sS'diag_A39'
p1875
I93
sS'diag_F84'
p1876
I543
sS'diag_L29'
p1877
I927
sS'diag_F82'
p1878
I541
sS'diag_F83'
p1879
I542
sS'diag_F80'
p1880
I539
sS'diag_F81'
p1881
I540
sS'diag_P08'
p1882
I1222
sS'diag_Z08'
p1883
I2033
sS'diag_Z09'
p1884
I2034
sS'diag_Z02'
p1885
I2030
sS'diag_Z03'
p1886
I2031
sS'diag_Z00'
p1887
I2028
sS'diag_Z01'
p1888
I2029
sS'diag_Z04'
p1889
I2032
sS'diag_B24'
p1890
I165
sS'diag_B25'
p1891
I166
sS'diag_B26'
p1892
I167
sS'type_um_30'
p1893
I2267
sS'diag_B20'
p1894
I161
sS'type_um_36'
p1895
I2270
sS'diag_B22'
p1896
I163
sS'type_um_34'
p1897
I2268
sS'diag_C54'
p1898
I280
sS'diag_C55'
p1899
I281
sS'diag_C56'
p1900
I282
sS'diag_C57'
p1901
I283
sS'diag_C50'
p1902
I276
sS'diag_C51'
p1903
I277
sS'diag_C52'
p1904
I278
sS'diag_C53'
p1905
I279
sS'diag_C58'
p1906
I284
sS'diag_N88'
p1907
I1127
sS'diag_N89'
p1908
I1128
sS'diag_K36'
p1909
I861
sS'diag_K37'
p1910
I862
sS'diag_K35'
p1911
I860
sS'diag_K30'
p1912
I858
sS'diag_K31'
p1913
I859
sS'diag_K38'
p1914
I863
sS'diag_Y21'
p1915
I1958
sS'diag_Y18'
p1916
I1955
sS'diag_Y19'
p1917
I1956
sS'diag_Y16'
p1918
I1953
sS'diag_Y17'
p1919
I1954
sS'diag_Y14'
p1920
I1951
sS'diag_Y15'
p1921
I1952
sS'diag_Y12'
p1922
I1949
sS'diag_Y13'
p1923
I1950
sS'diag_Y10'
p1924
I1947
sS'diag_Y11'
p1925
I1948
sS'diag_J09'
p1926
I777
sS'diag_J02'
p1927
I772
sS'diag_J03'
p1928
I773
sS'diag_J00'
p1929
I770
sS'diag_J01'
p1930
I771
sS'diag_J06'
p1931
I776
sS'diag_J04'
p1932
I774
sS'diag_J05'
p1933
I775
sS'type_um_07B'
p1934
I2247
sS'type_um_07A'
p1935
I2246
sS'diag_R29'
p1936
I1387
sS'diag_W04'
p1937
I1756
sS'diag_R25'
p1938
I1384
sS'diag_R26'
p1939
I1385
sS'diag_R27'
p1940
I1386
sS'diag_R20'
p1941
I1380
sS'diag_R21'
p1942
I1381
sS'diag_R22'
p1943
I1382
sS'diag_R23'
p1944
I1383
sS'diag_I15'
p1945
I705
sS'diag_I12'
p1946
I703
sS'diag_I13'
p1947
I704
sS'diag_I10'
p1948
I701
sS'diag_I11'
p1949
I702
sS'diag_Q30'
p1950
I1300
sS'diag_Q31'
p1951
I1301
sS'diag_Q32'
p1952
I1302
sS'diag_Q33'
p1953
I1303
sS'diag_Q34'
p1954
I1304
sS'diag_Q35'
p1955
I1305
sS'diag_Q36'
p1956
I1306
sS'diag_Q37'
p1957
I1307
sS'diag_Q38'
p1958
I1308
sS'diag_Q39'
p1959
I1309
sS'diag_V84'
p1960
I1736
sS'diag_V85'
p1961
I1737
sS'diag_V82'
p1962
I1734
sS'diag_V83'
p1963
I1735
sS'diag_V80'
p1964
I1732
sS'diag_V81'
p1965
I1733
sS'diag_X08'
p1966
I1847
sS'dpt_98'
p1967
I2210
sS'dpt_99'
p1968
I2211
sS'dpt_92'
p1969
I2205
sS'dpt_93'
p1970
I2206
sS'dpt_90'
p1971
I2203
sS'dpt_91'
p1972
I2204
sS'dpt_97'
p1973
I2209
sS'dpt_94'
p1974
I2207
sS'dpt_95'
p1975
I2208
sS'diag_S54'
p1976
I1506
sS'diag_S55'
p1977
I1507
sS'diag_S56'
p1978
I1508
sS'diag_S57'
p1979
I1509
sS'diag_S50'
p1980
I1502
sS'diag_S51'
p1981
I1503
sS'diag_S52'
p1982
I1504
sS'diag_S53'
p1983
I1505
sS'diag_S58'
p1984
I1510
sS'diag_S59'
p1985
I1511
sS'diag_X03'
p1986
I1843
sS'diag_X04'
p1987
I1844
sS'diag_X05'
p1988
I1845
sS'diag_X06'
p1989
I1846
sS'diag_W50'
p1990
I1800
sS'diag_W51'
p1991
I1801
sS'diag_W52'
p1992
I1802
sS'diag_W53'
p1993
I1803
sS'diag_W54'
p1994
I1804
sS'diag_W55'
p1995
I1805
sS'diag_W56'
p1996
I1806
sS'diag_E72'
p1997
I459
sS'diag_W57'
p1998
I1807
sS'diag_E27'
p1999
I425
sS'diag_L23'
p2000
I921
sS'diag_L20'
p2001
I918
sS'dpt_09'
p2002
I2120
sS'diag_L21'
p2003
I919
sS'dpt_08'
p2004
I2119
sS'diag_L26'
p2005
I924
sS'diag_L27'
p2006
I925
sS'diag_L24'
p2007
I922
sS'diag_L25'
p2008
I923
sS'diag_M53'
p2009
I1021
sS'diag_L28'
p2010
I926
sS'diag_F91'
p2011
I547
sS'diag_F90'
p2012
I546
sS'diag_A21'
p2013
I76
sS'diag_A20'
p2014
I75
sS'diag_A27'
p2015
I82
sS'diag_L30'
p2016
I928
sS'diag_A25'
p2017
I80
sS'diag_A24'
p2018
I79
sS'diag_F99'
p2019
I553
sS'diag_F98'
p2020
I552
sS'diag_A28'
p2021
I83
sS'stay_length_30'
p2022
I2222
sS'diag_E29'
p2023
I427
sS'diag_E28'
p2024
I426
sS'diag_Z11'
p2025
I2036
sS'diag_Z10'
p2026
I2035
sS'diag_Z13'
p2027
I2038
sS'diag_Z12'
p2028
I2037
sS'diag_B39'
p2029
I176
sS'diag_B38'
p2030
I175
sS'diag_B37'
p2031
I174
sS'diag_B36'
p2032
I173
sS'diag_B35'
p2033
I172
sS'diag_B34'
p2034
I171
sS'diag_B33'
p2035
I170
sS'type_um_43'
p2036
I2275
sS'type_um_40'
p2037
I2272
sS'diag_B30'
p2038
I169
sS'diag_C47'
p2039
I273
sS'diag_C46'
p2040
I272
sS'diag_C45'
p2041
I271
sS'diag_C44'
p2042
I270
sS'diag_C43'
p2043
I269
sS'diag_C41'
p2044
I268
sS'diag_C40'
p2045
I267
sS'diag_K21'
p2046
I850
sS'diag_K20'
p2047
I849
sS'diag_K23'
p2048
I852
sS'diag_K22'
p2049
I851
sS'diag_K25'
p2050
I853
sS'diag_K27'
p2051
I855
sS'diag_C48'
p2052
I274
sS'diag_Y01'
p2053
I1938
sS'diag_Y00'
p2054
I1937
sS'diag_Y03'
p2055
I1940
sS'diag_Y02'
p2056
I1939
sS'diag_Y05'
p2057
I1942
sS'diag_Y04'
p2058
I1941
sS'diag_Y07'
p2059
I1944
sS'diag_Y06'
p2060
I1943
sS'diag_Y09'
p2061
I1946
sS'diag_Y08'
p2062
I1945
sS'diag_O48'
p2063
I1179
sS'diag_J18'
p2064
I786
sS'diag_O43'
p2065
I1174
sS'diag_O42'
p2066
I1173
sS'diag_O41'
p2067
I1172
sS'diag_O40'
p2068
I1171
sS'diag_O47'
p2069
I1178
sS'diag_O46'
p2070
I1177
sS'diag_O45'
p2071
I1176
sS'diag_O44'
p2072
I1175
sS'diag_Y57'
p2073
I1991
sS'diag_N99'
p2074
I1138
sS'diag_N98'
p2075
I1137
sS'diag_N91'
p2076
I1130
sS'diag_N90'
p2077
I1129
sS'diag_N93'
p2078
I1132
sS'diag_N92'
p2079
I1131
sS'diag_N95'
p2080
I1134
sS'diag_N94'
p2081
I1133
sS'diag_N97'
p2082
I1136
sS'diag_N96'
p2083
I1135
sS'diag_R39'
p2084
I1395
sS'diag_R36'
p2085
I1394
sS'diag_R35'
p2086
I1393
sS'diag_R34'
p2087
I1392
sS'diag_R33'
p2088
I1391
sS'diag_R32'
p2089
I1390
sS'diag_R31'
p2090
I1389
sS'diag_R30'
p2091
I1388
sS'diag_I01'
p2092
I694
sS'diag_I00'
p2093
I693
sS'cmd_21'
p2094
I36
sS'cmd_20'
p2095
I35
sS'diag_I05'
p2096
I696
sS'cmd_26'
p2097
I41
sS'cmd_25'
p2098
I40
sS'diag_F32'
p2099
I505
sS'diag_I09'
p2100
I700
sS'diag_I08'
p2101
I699
sS'cmd_28'
p2102
I43
sS'diag_F30'
p2103
I503
sS'diag_U04'
p2104
I1647
sS'diag_U07'
p2105
I1649
sS'diag_U06'
p2106
I1648
sS'diag_F34'
p2107
I507
sS'diag_Q23'
p2108
I1294
sS'diag_Q22'
p2109
I1293
sS'diag_Q21'
p2110
I1292
sS'diag_Q20'
p2111
I1291
sS'diag_Q27'
p2112
I1298
sS'diag_Q26'
p2113
I1297
sS'diag_Q25'
p2114
I1296
sS'diag_Q24'
p2115
I1295
sS'diag_V99'
p2116
I1751
sS'diag_V98'
p2117
I1750
sS'diag_Q28'
p2118
I1299
sS'diag_B27'
p2119
I168
sS'diag_A49'
p2120
I101
sS'diag_B21'
p2121
I162
sS'dpt_89'
p2122
I2202
sS'dpt_88'
p2123
I2201
sS'diag_Q15'
p2124
I1287
sS'type_um_35'
p2125
I2269
sS'dpt_81'
p2126
I2194
sS'dpt_80'
p2127
I2193
sS'dpt_83'
p2128
I2196
sS'dpt_82'
p2129
I2195
sS'dpt_85'
p2130
I2198
sS'dpt_84'
p2131
I2197
sS'dpt_87'
p2132
I2200
sS'dpt_86'
p2133
I2199
sS'diag_N86'
p2134
I1125
sS'diag_N87'
p2135
I1126
sS'diag_N84'
p2136
I1123
sS'diag_S47'
p2137
I1499
sS'diag_S46'
p2138
I1498
sS'diag_S45'
p2139
I1497
sS'diag_N85'
p2140
I1124
sS'diag_S43'
p2141
I1495
sS'diag_S42'
p2142
I1494
sS'diag_S41'
p2143
I1493
sS'diag_S40'
p2144
I1492
sS'diag_N82'
p2145
I1121
sS'diag_S49'
p2146
I1501
sS'diag_N83'
p2147
I1122
sS'diag_N80'
p2148
I1119
sS'diag_N81'
p2149
I1120
sS'diag_O25'
p2150
I1160
sS'diag_O24'
p2151
I1159
sS'diag_O26'
p2152
I1161
sS'diag_O21'
p2153
I1156
sS'diag_O20'
p2154
I1155
sS'diag_O23'
p2155
I1158
sS'diag_H03'
p2156
I625
sS'diag_V10'
p2157
I1662
sS'diag_V16'
p2158
I1668
sS'diag_A16'
p2159
I71
sS'diag_A17'
p2160
I72
sS'diag_A15'
p2161
I70
sS'stay_length_25'
p2162
I2220
sS'stay_length_20'
p2163
I2219
sS'diag_A18'
p2164
I73
sS'diag_A19'
p2165
I74
sS'diag_E90'
p2166
I475
sS'diag_G50'
p2167
I589
sS'diag_G51'
p2168
I590
sS'diag_G52'
p2169
I591
sS'diag_G53'
p2170
I592
sS'diag_B06'
p2171
I152
sS'diag_G55'
p2172
I594
sS'diag_G56'
p2173
I595
sS'diag_G57'
p2174
I596
sS'diag_G58'
p2175
I597
sS'diag_G59'
p2176
I598
sS'diag_B08'
p2177
I154
sS'diag_B09'
p2178
I155
sS'type_um_51'
p2179
I2277
sS'type_um_50'
p2180
I2276
sS'type_um_53'
p2181
I2279
sS'type_um_52'
p2182
I2278
sS'diag_E78'
p2183
I465
sS'diag_E79'
p2184
I466
sS'diag_K58'
p2185
I877
sS'diag_K59'
p2186
I878
sS'diag_E70'
p2187
I457
sS'diag_K55'
p2188
I874
sS'diag_K56'
p2189
I875
sS'diag_K57'
p2190
I876
sS'diag_K50'
p2191
I871
sS'diag_K51'
p2192
I872
sS'diag_K52'
p2193
I873
sS'diag_E77'
p2194
I464
sS'diag_M99'
p2195
I1056
sS'diag_M92'
p2196
I1051
sS'diag_M93'
p2197
I1052
sS'diag_M90'
p2198
I1049
sS'diag_M91'
p2199
I1050
sS'diag_M96'
p2200
I1055
sS'diag_M94'
p2201
I1053
sS'diag_M95'
p2202
I1054
sS'diag_Y74'
p2203
I2006
sS'diag_Y75'
p2204
I2007
sS'diag_Y76'
p2205
I2008
sS'diag_Y77'
p2206
I2009
sS'diag_Y70'
p2207
I2002
sS'diag_Y71'
p2208
I2003
sS'diag_Y72'
p2209
I2004
sS'diag_Y73'
p2210
I2005
sS'diag_T75'
p2211
I1626
sS'diag_Y78'
p2212
I2010
sS'diag_Y79'
p2213
I2011
sS'diag_O74'
p2214
I1194
sS'diag_O75'
p2215
I1195
sS'diag_O72'
p2216
I1192
sS'diag_O73'
p2217
I1193
sS'diag_O70'
p2218
I1190
sS'diag_O71'
p2219
I1191
sS'diag_B46'
p2220
I183
sS'diag_X09'
p2221
I1848
sS'diag_C78'
p2222
I303
sS'diag_C79'
p2223
I304
sS'diag_C72'
p2224
I297
sS'diag_C73'
p2225
I298
sS'diag_C70'
p2226
I295
sS'diag_C71'
p2227
I296
sS'diag_C76'
p2228
I301
sS'diag_C77'
p2229
I302
sS'diag_C74'
p2230
I299
sS'diag_C75'
p2231
I300
sS'diag_R02'
p2232
I1363
sS'diag_R03'
p2233
I1364
sS'diag_R00'
p2234
I1361
sS'diag_R01'
p2235
I1362
sS'diag_R06'
p2236
I1367
sS'diag_R07'
p2237
I1368
sS'diag_R04'
p2238
I1365
sS'diag_R05'
p2239
I1366
sS'diag_W58'
p2240
I1808
sS'diag_W59'
p2241
I1809
sS'diag_R09'
p2242
I1369
sS'diag_I74'
p2243
I752
sS'diag_I77'
p2244
I753
sS'diag_I70'
p2245
I748
sS'diag_I71'
p2246
I749
sS'diag_I72'
p2247
I750
sS'diag_I73'
p2248
I751
sS'diag_Y33'
p2249
I1970
sS'diag_I78'
p2250
I754
sS'diag_I79'
p2251
I755
sS'type_um_11'
p2252
I2249
sS'diag_B47'
p2253
I184
sS'diag_B45'
p2254
I182
sS'diag_B44'
p2255
I181
sS'diag_Q16'
p2256
I1288
sS'diag_Q17'
p2257
I1289
sS'diag_Q14'
p2258
I1286
sS'type_um_12'
p2259
I2250
sS'diag_Q12'
p2260
I1284
sS'diag_Q13'
p2261
I1285
sS'diag_Q10'
p2262
I1282
sS'diag_Q11'
p2263
I1283
sS'diag_G90'
p2264
I612
sS'diag_Q18'
p2265
I1290
sS'diag_G91'
p2266
I613
sS'type_um_17'
p2267
I2256
sS'diag_H00'
p2268
I622
sS'diag_H01'
p2269
I623
sS'diag_H02'
p2270
I624
sS'type_um_16'
p2271
I2255
sS'diag_H04'
p2272
I626
sS'diag_H05'
p2273
I627
sS'diag_H06'
p2274
I628
sS'diag_U90'
p2275
I1654
sS'diag_S78'
p2276
I1530
sS'diag_S79'
p2277
I1531
sS'diag_S72'
p2278
I1524
sS'diag_S73'
p2279
I1525
sS'diag_S70'
p2280
I1522
sS'diag_S71'
p2281
I1523
sS'diag_S76'
p2282
I1528
sS'diag_S77'
p2283
I1529
sS'diag_S74'
p2284
I1526
sS'diag_S75'
p2285
I1527
sS'diag_B49'
p2286
I186
sS'diag_B40'
p2287
I177
s.